
BMS_Master_Welzmiller.elf:     file format elf32-avr

Sections:
Idx Name          Size      VMA       LMA       File off  Algn
  0 .data         00000322  00800100  00002704  00002798  2**0
                  CONTENTS, ALLOC, LOAD, DATA
  1 .text         00002704  00000000  00000000  00000094  2**1
                  CONTENTS, ALLOC, LOAD, READONLY, CODE
  2 .bss          000002c3  00800422  00800422  00002aba  2**0
                  ALLOC
  3 .comment      00000030  00000000  00000000  00002aba  2**0
                  CONTENTS, READONLY
  4 .note.gnu.avr.deviceinfo 00000040  00000000  00000000  00002aec  2**2
                  CONTENTS, READONLY
  5 .debug_aranges 000002c8  00000000  00000000  00002b2c  2**0
                  CONTENTS, READONLY, DEBUGGING
  6 .debug_info   000031f4  00000000  00000000  00002df4  2**0
                  CONTENTS, READONLY, DEBUGGING
  7 .debug_abbrev 00000e91  00000000  00000000  00005fe8  2**0
                  CONTENTS, READONLY, DEBUGGING
  8 .debug_line   00000eba  00000000  00000000  00006e79  2**0
                  CONTENTS, READONLY, DEBUGGING
  9 .debug_frame  00000958  00000000  00000000  00007d34  2**2
                  CONTENTS, READONLY, DEBUGGING
 10 .debug_str    00000a32  00000000  00000000  0000868c  2**0
                  CONTENTS, READONLY, DEBUGGING
 11 .debug_loc    00002a35  00000000  00000000  000090be  2**0
                  CONTENTS, READONLY, DEBUGGING
 12 .debug_ranges 00000230  00000000  00000000  0000baf3  2**0
                  CONTENTS, READONLY, DEBUGGING

Disassembly of section .text:

00000000 <__vectors>:
       0:	0c 94 ad 00 	jmp	0x15a	; 0x15a <__ctors_end>
       4:	0c 94 ca 00 	jmp	0x194	; 0x194 <__bad_interrupt>
       8:	0c 94 ca 00 	jmp	0x194	; 0x194 <__bad_interrupt>
       c:	0c 94 ca 00 	jmp	0x194	; 0x194 <__bad_interrupt>
      10:	0c 94 ca 00 	jmp	0x194	; 0x194 <__bad_interrupt>
      14:	0c 94 ca 00 	jmp	0x194	; 0x194 <__bad_interrupt>
      18:	0c 94 ca 00 	jmp	0x194	; 0x194 <__bad_interrupt>
      1c:	0c 94 ca 00 	jmp	0x194	; 0x194 <__bad_interrupt>
      20:	0c 94 ca 00 	jmp	0x194	; 0x194 <__bad_interrupt>
      24:	0c 94 ca 00 	jmp	0x194	; 0x194 <__bad_interrupt>
      28:	0c 94 ca 00 	jmp	0x194	; 0x194 <__bad_interrupt>
      2c:	0c 94 ca 00 	jmp	0x194	; 0x194 <__bad_interrupt>
      30:	0c 94 ca 00 	jmp	0x194	; 0x194 <__bad_interrupt>
      34:	0c 94 ca 00 	jmp	0x194	; 0x194 <__bad_interrupt>
      38:	0c 94 e8 0c 	jmp	0x19d0	; 0x19d0 <__vector_14>
      3c:	0c 94 ca 00 	jmp	0x194	; 0x194 <__bad_interrupt>
      40:	0c 94 ca 00 	jmp	0x194	; 0x194 <__bad_interrupt>
      44:	0c 94 ca 00 	jmp	0x194	; 0x194 <__bad_interrupt>
      48:	0c 94 ca 00 	jmp	0x194	; 0x194 <__bad_interrupt>
      4c:	0c 94 ca 00 	jmp	0x194	; 0x194 <__bad_interrupt>
      50:	0c 94 b9 0d 	jmp	0x1b72	; 0x1b72 <__vector_20>
      54:	0c 94 ca 00 	jmp	0x194	; 0x194 <__bad_interrupt>
      58:	0c 94 ca 00 	jmp	0x194	; 0x194 <__bad_interrupt>
      5c:	0c 94 ca 00 	jmp	0x194	; 0x194 <__bad_interrupt>
      60:	0c 94 ca 00 	jmp	0x194	; 0x194 <__bad_interrupt>
      64:	0c 94 ca 00 	jmp	0x194	; 0x194 <__bad_interrupt>
      68:	0c 94 9b 0c 	jmp	0x1936	; 0x1936 <__vector_26>
      6c:	0c 94 ca 00 	jmp	0x194	; 0x194 <__bad_interrupt>
      70:	0c 94 ca 00 	jmp	0x194	; 0x194 <__bad_interrupt>
      74:	0c 94 ca 00 	jmp	0x194	; 0x194 <__bad_interrupt>
      78:	0c 94 ca 00 	jmp	0x194	; 0x194 <__bad_interrupt>
      7c:	b1 0b       	sbc	r27, r17
      7e:	bb 0b       	sbc	r27, r27
      80:	b3 0b       	sbc	r27, r19
      82:	d6 0b       	sbc	r29, r22
      84:	a9 0b       	sbc	r26, r25
      86:	ab 0b       	sbc	r26, r27
      88:	ad 0b       	sbc	r26, r29
      8a:	af 0b       	sbc	r26, r31
      8c:	b5 0b       	sbc	r27, r21
      8e:	b7 0b       	sbc	r27, r23
      90:	b9 0b       	sbc	r27, r25
      92:	cf 0b       	sbc	r28, r31
      94:	d1 0b       	sbc	r29, r17
      96:	d3 0b       	sbc	r29, r19
      98:	d5 0b       	sbc	r29, r21
      9a:	d6 0b       	sbc	r29, r22
      9c:	d6 0b       	sbc	r29, r22
      9e:	d6 0b       	sbc	r29, r22
      a0:	d6 0b       	sbc	r29, r22
      a2:	d6 0b       	sbc	r29, r22
      a4:	d6 0b       	sbc	r29, r22
      a6:	d6 0b       	sbc	r29, r22
      a8:	d6 0b       	sbc	r29, r22
      aa:	d6 0b       	sbc	r29, r22
      ac:	d6 0b       	sbc	r29, r22
      ae:	d6 0b       	sbc	r29, r22
      b0:	d6 0b       	sbc	r29, r22
      b2:	d6 0b       	sbc	r29, r22
      b4:	d6 0b       	sbc	r29, r22
      b6:	d6 0b       	sbc	r29, r22
      b8:	d6 0b       	sbc	r29, r22
      ba:	d6 0b       	sbc	r29, r22
      bc:	d6 0b       	sbc	r29, r22
      be:	d6 0b       	sbc	r29, r22
      c0:	d6 0b       	sbc	r29, r22
      c2:	d6 0b       	sbc	r29, r22
      c4:	d6 0b       	sbc	r29, r22
      c6:	d6 0b       	sbc	r29, r22
      c8:	d6 0b       	sbc	r29, r22
      ca:	d6 0b       	sbc	r29, r22
      cc:	d6 0b       	sbc	r29, r22
      ce:	d6 0b       	sbc	r29, r22
      d0:	d6 0b       	sbc	r29, r22
      d2:	d6 0b       	sbc	r29, r22
      d4:	d6 0b       	sbc	r29, r22
      d6:	d6 0b       	sbc	r29, r22
      d8:	d6 0b       	sbc	r29, r22
      da:	d6 0b       	sbc	r29, r22
      dc:	d6 0b       	sbc	r29, r22
      de:	d6 0b       	sbc	r29, r22
      e0:	d6 0b       	sbc	r29, r22
      e2:	d6 0b       	sbc	r29, r22
      e4:	d6 0b       	sbc	r29, r22
      e6:	d6 0b       	sbc	r29, r22
      e8:	d6 0b       	sbc	r29, r22
      ea:	d6 0b       	sbc	r29, r22
      ec:	d6 0b       	sbc	r29, r22
      ee:	d6 0b       	sbc	r29, r22
      f0:	d6 0b       	sbc	r29, r22
      f2:	d6 0b       	sbc	r29, r22
      f4:	d6 0b       	sbc	r29, r22
      f6:	d6 0b       	sbc	r29, r22
      f8:	d6 0b       	sbc	r29, r22
      fa:	d6 0b       	sbc	r29, r22
      fc:	d6 0b       	sbc	r29, r22
      fe:	d6 0b       	sbc	r29, r22
     100:	d6 0b       	sbc	r29, r22
     102:	d6 0b       	sbc	r29, r22
     104:	d6 0b       	sbc	r29, r22
     106:	d6 0b       	sbc	r29, r22
     108:	d6 0b       	sbc	r29, r22
     10a:	d6 0b       	sbc	r29, r22
     10c:	d6 0b       	sbc	r29, r22
     10e:	d6 0b       	sbc	r29, r22
     110:	d6 0b       	sbc	r29, r22
     112:	d6 0b       	sbc	r29, r22
     114:	d6 0b       	sbc	r29, r22
     116:	d6 0b       	sbc	r29, r22
     118:	d6 0b       	sbc	r29, r22
     11a:	d6 0b       	sbc	r29, r22
     11c:	d6 0b       	sbc	r29, r22
     11e:	d6 0b       	sbc	r29, r22
     120:	d6 0b       	sbc	r29, r22
     122:	d6 0b       	sbc	r29, r22
     124:	d6 0b       	sbc	r29, r22
     126:	d6 0b       	sbc	r29, r22
     128:	d6 0b       	sbc	r29, r22
     12a:	d6 0b       	sbc	r29, r22
     12c:	d6 0b       	sbc	r29, r22
     12e:	d6 0b       	sbc	r29, r22
     130:	d6 0b       	sbc	r29, r22
     132:	d6 0b       	sbc	r29, r22
     134:	d6 0b       	sbc	r29, r22
     136:	d6 0b       	sbc	r29, r22
     138:	d6 0b       	sbc	r29, r22
     13a:	d6 0b       	sbc	r29, r22
     13c:	d6 0b       	sbc	r29, r22
     13e:	d6 0b       	sbc	r29, r22
     140:	d6 0b       	sbc	r29, r22
     142:	d6 0b       	sbc	r29, r22
     144:	d6 0b       	sbc	r29, r22
     146:	cd 0b       	sbc	r28, r29
     148:	d6 0b       	sbc	r29, r22
     14a:	cb 0b       	sbc	r28, r27
     14c:	c9 0b       	sbc	r28, r25
     14e:	c7 0b       	sbc	r28, r23
     150:	c5 0b       	sbc	r28, r21
     152:	c3 0b       	sbc	r28, r19
     154:	c1 0b       	sbc	r28, r17
     156:	bf 0b       	sbc	r27, r31
     158:	bd 0b       	sbc	r27, r29

0000015a <__ctors_end>:
     15a:	11 24       	eor	r1, r1
     15c:	1f be       	out	0x3f, r1	; 63
     15e:	cf ef       	ldi	r28, 0xFF	; 255
     160:	d0 e1       	ldi	r29, 0x10	; 16
     162:	de bf       	out	0x3e, r29	; 62
     164:	cd bf       	out	0x3d, r28	; 61

00000166 <__do_copy_data>:
     166:	14 e0       	ldi	r17, 0x04	; 4
     168:	a0 e0       	ldi	r26, 0x00	; 0
     16a:	b1 e0       	ldi	r27, 0x01	; 1
     16c:	e4 e0       	ldi	r30, 0x04	; 4
     16e:	f7 e2       	ldi	r31, 0x27	; 39
     170:	02 c0       	rjmp	.+4      	; 0x176 <__do_copy_data+0x10>
     172:	05 90       	lpm	r0, Z+
     174:	0d 92       	st	X+, r0
     176:	a2 32       	cpi	r26, 0x22	; 34
     178:	b1 07       	cpc	r27, r17
     17a:	d9 f7       	brne	.-10     	; 0x172 <__do_copy_data+0xc>

0000017c <__do_clear_bss>:
     17c:	26 e0       	ldi	r18, 0x06	; 6
     17e:	a2 e2       	ldi	r26, 0x22	; 34
     180:	b4 e0       	ldi	r27, 0x04	; 4
     182:	01 c0       	rjmp	.+2      	; 0x186 <.do_clear_bss_start>

00000184 <.do_clear_bss_loop>:
     184:	1d 92       	st	X+, r1

00000186 <.do_clear_bss_start>:
     186:	a5 3e       	cpi	r26, 0xE5	; 229
     188:	b2 07       	cpc	r27, r18
     18a:	e1 f7       	brne	.-8      	; 0x184 <.do_clear_bss_loop>
     18c:	0e 94 63 0d 	call	0x1ac6	; 0x1ac6 <main>
     190:	0c 94 80 13 	jmp	0x2700	; 0x2700 <_exit>

00000194 <__bad_interrupt>:
     194:	0c 94 00 00 	jmp	0	; 0x0 <__vectors>

00000198 <adc_task>:
     198:	80 91 27 04 	lds	r24, 0x0427
     19c:	88 23       	and	r24, r24
     19e:	09 f4       	brne	.+2      	; 0x1a2 <adc_task+0xa>
     1a0:	48 c0       	rjmp	.+144    	; 0x232 <adc_task+0x9a>
     1a2:	80 91 7a 00 	lds	r24, 0x007A
     1a6:	98 2f       	mov	r25, r24
     1a8:	90 74       	andi	r25, 0x40	; 64
     1aa:	86 fd       	sbrc	r24, 6
     1ac:	42 c0       	rjmp	.+132    	; 0x232 <adc_task+0x9a>
     1ae:	80 91 26 04 	lds	r24, 0x0426
     1b2:	e8 2f       	mov	r30, r24
     1b4:	f0 e0       	ldi	r31, 0x00	; 0
     1b6:	20 91 78 00 	lds	r18, 0x0078
     1ba:	30 91 79 00 	lds	r19, 0x0079
     1be:	ee 0f       	add	r30, r30
     1c0:	ff 1f       	adc	r31, r31
     1c2:	ec 5c       	subi	r30, 0xCC	; 204
     1c4:	fb 4f       	sbci	r31, 0xFB	; 251
     1c6:	31 83       	std	Z+1, r19	; 0x01
     1c8:	20 83       	st	Z, r18
     1ca:	21 e0       	ldi	r18, 0x01	; 1
     1cc:	30 e0       	ldi	r19, 0x00	; 0
     1ce:	08 2e       	mov	r0, r24
     1d0:	02 c0       	rjmp	.+4      	; 0x1d6 <adc_task+0x3e>
     1d2:	22 0f       	add	r18, r18
     1d4:	33 1f       	adc	r19, r19
     1d6:	0a 94       	dec	r0
     1d8:	e2 f7       	brpl	.-8      	; 0x1d2 <adc_task+0x3a>
     1da:	40 91 22 04 	lds	r20, 0x0422
     1de:	50 91 23 04 	lds	r21, 0x0423
     1e2:	24 2b       	or	r18, r20
     1e4:	35 2b       	or	r19, r21
     1e6:	30 93 23 04 	sts	0x0423, r19
     1ea:	20 93 22 04 	sts	0x0422, r18
     1ee:	8f 5f       	subi	r24, 0xFF	; 255
     1f0:	40 91 24 04 	lds	r20, 0x0424
     1f4:	50 91 25 04 	lds	r21, 0x0425
     1f8:	05 c0       	rjmp	.+10     	; 0x204 <adc_task+0x6c>
     1fa:	8a 30       	cpi	r24, 0x0A	; 10
     1fc:	10 f4       	brcc	.+4      	; 0x202 <adc_task+0x6a>
     1fe:	8f 5f       	subi	r24, 0xFF	; 255
     200:	01 c0       	rjmp	.+2      	; 0x204 <adc_task+0x6c>
     202:	89 2f       	mov	r24, r25
     204:	9a 01       	movw	r18, r20
     206:	08 2e       	mov	r0, r24
     208:	02 c0       	rjmp	.+4      	; 0x20e <adc_task+0x76>
     20a:	36 95       	lsr	r19
     20c:	27 95       	ror	r18
     20e:	0a 94       	dec	r0
     210:	e2 f7       	brpl	.-8      	; 0x20a <adc_task+0x72>
     212:	20 ff       	sbrs	r18, 0
     214:	f2 cf       	rjmp	.-28     	; 0x1fa <adc_task+0x62>
     216:	80 93 26 04 	sts	0x0426, r24
     21a:	ec e7       	ldi	r30, 0x7C	; 124
     21c:	f0 e0       	ldi	r31, 0x00	; 0
     21e:	90 81       	ld	r25, Z
     220:	8f 71       	andi	r24, 0x1F	; 31
     222:	90 7e       	andi	r25, 0xE0	; 224
     224:	89 2b       	or	r24, r25
     226:	80 83       	st	Z, r24
     228:	ea e7       	ldi	r30, 0x7A	; 122
     22a:	f0 e0       	ldi	r31, 0x00	; 0
     22c:	80 81       	ld	r24, Z
     22e:	80 64       	ori	r24, 0x40	; 64
     230:	80 83       	st	Z, r24
     232:	08 95       	ret

00000234 <bmschip_setOvUnVoltage>:
	bmschip_writeConfig();
}

//Kritische Spannungsgrenzen festlegen
void bmschip_setOvUnVoltage(uint16_t * undervoltage, uint16_t * overvoltage)
{
     234:	cf 93       	push	r28
     236:	df 93       	push	r29
     238:	ec 01       	movw	r28, r24
     23a:	fb 01       	movw	r30, r22
	// Spannungen an LTC6804-Format anpassen
	// aus 16bit-Zahl wird eine 12Bit-Zahl
	if(*undervoltage > 0)
     23c:	88 81       	ld	r24, Y
     23e:	99 81       	ldd	r25, Y+1	; 0x01
     240:	00 97       	sbiw	r24, 0x00	; 0
     242:	49 f0       	breq	.+18     	; 0x256 <bmschip_setOvUnVoltage+0x22>
	{
		*undervoltage = (*undervoltage / 16) - 1;	// (Spannung in 100uV / (16 * 100uV)) - 1		
     244:	92 95       	swap	r25
     246:	82 95       	swap	r24
     248:	8f 70       	andi	r24, 0x0F	; 15
     24a:	89 27       	eor	r24, r25
     24c:	9f 70       	andi	r25, 0x0F	; 15
     24e:	89 27       	eor	r24, r25
     250:	01 97       	sbiw	r24, 0x01	; 1
     252:	99 83       	std	Y+1, r25	; 0x01
     254:	88 83       	st	Y, r24
	}
	*overvoltage = *overvoltage / 16;			// Spannung in 100uV / (16 * 100uV)
     256:	80 81       	ld	r24, Z
     258:	91 81       	ldd	r25, Z+1	; 0x01
     25a:	92 95       	swap	r25
     25c:	82 95       	swap	r24
     25e:	8f 70       	andi	r24, 0x0F	; 15
     260:	89 27       	eor	r24, r25
     262:	9f 70       	andi	r25, 0x0F	; 15
     264:	89 27       	eor	r24, r25
     266:	91 83       	std	Z+1, r25	; 0x01
     268:	80 83       	st	Z, r24
	
	
	// Konfigurationsdaten aktualisieren
	ltc6804.config[0] = 0x24;			//2 wenn GPIO3 als Input gesetzt werden soll
     26a:	a8 e5       	ldi	r26, 0x58	; 88
     26c:	b4 e0       	ldi	r27, 0x04	; 4
     26e:	84 e2       	ldi	r24, 0x24	; 36
     270:	8c 93       	st	X, r24
	ltc6804.config[1] = (uint8_t) *undervoltage;
     272:	88 81       	ld	r24, Y
     274:	11 96       	adiw	r26, 0x01	; 1
     276:	8c 93       	st	X, r24
     278:	11 97       	sbiw	r26, 0x01	; 1
	ltc6804.config[2] = (uint8_t) (((*overvoltage & 0x000F) << 4) | ((*undervoltage & 0x0F00) >> 8));
     27a:	88 81       	ld	r24, Y
     27c:	99 81       	ldd	r25, Y+1	; 0x01
     27e:	88 27       	eor	r24, r24
     280:	9f 70       	andi	r25, 0x0F	; 15
     282:	80 81       	ld	r24, Z
     284:	82 95       	swap	r24
     286:	80 7f       	andi	r24, 0xF0	; 240
     288:	89 2b       	or	r24, r25
     28a:	12 96       	adiw	r26, 0x02	; 2
     28c:	8c 93       	st	X, r24
     28e:	12 97       	sbiw	r26, 0x02	; 2
	ltc6804.config[3] = (uint8_t) ((*overvoltage & 0x0FF0) >> 4);
     290:	80 81       	ld	r24, Z
     292:	91 81       	ldd	r25, Z+1	; 0x01
     294:	80 7f       	andi	r24, 0xF0	; 240
     296:	9f 70       	andi	r25, 0x0F	; 15
     298:	92 95       	swap	r25
     29a:	82 95       	swap	r24
     29c:	8f 70       	andi	r24, 0x0F	; 15
     29e:	89 27       	eor	r24, r25
     2a0:	9f 70       	andi	r25, 0x0F	; 15
     2a2:	89 27       	eor	r24, r25
     2a4:	13 96       	adiw	r26, 0x03	; 3
     2a6:	8c 93       	st	X, r24
     2a8:	13 97       	sbiw	r26, 0x03	; 3
	ltc6804.config[4] = 0x00;
     2aa:	14 96       	adiw	r26, 0x04	; 4
     2ac:	1c 92       	st	X, r1
     2ae:	14 97       	sbiw	r26, 0x04	; 4
	ltc6804.config[5] = 0x00;
     2b0:	15 96       	adiw	r26, 0x05	; 5
     2b2:	1c 92       	st	X, r1
	
	// Zur Fehlerkontrolle ausserhalb dieser Funktion Spannungen nach Runden zurueckrechnen
	*undervoltage = (*undervoltage + 1) * 16;
     2b4:	88 81       	ld	r24, Y
     2b6:	99 81       	ldd	r25, Y+1	; 0x01
     2b8:	01 96       	adiw	r24, 0x01	; 1
     2ba:	82 95       	swap	r24
     2bc:	92 95       	swap	r25
     2be:	90 7f       	andi	r25, 0xF0	; 240
     2c0:	98 27       	eor	r25, r24
     2c2:	80 7f       	andi	r24, 0xF0	; 240
     2c4:	98 27       	eor	r25, r24
     2c6:	99 83       	std	Y+1, r25	; 0x01
     2c8:	88 83       	st	Y, r24
	*overvoltage = *overvoltage * 16;
     2ca:	80 81       	ld	r24, Z
     2cc:	91 81       	ldd	r25, Z+1	; 0x01
     2ce:	82 95       	swap	r24
     2d0:	92 95       	swap	r25
     2d2:	90 7f       	andi	r25, 0xF0	; 240
     2d4:	98 27       	eor	r25, r24
     2d6:	80 7f       	andi	r24, 0xF0	; 240
     2d8:	98 27       	eor	r25, r24
     2da:	91 83       	std	Z+1, r25	; 0x01
     2dc:	80 83       	st	Z, r24
}
     2de:	df 91       	pop	r29
     2e0:	cf 91       	pop	r28
     2e2:	08 95       	ret

000002e4 <bmschip_spi_rw>:

//SPI-Sende- und Empfangsfunktion
uint8_t bmschip_spi_rw (uint8_t *command, uint8_t size)
{
     2e4:	cf 93       	push	r28
	uint8_t i;
	
	if (spi.locked==0)		//Beginn des Sendens
     2e6:	c0 91 91 04 	lds	r28, 0x0491
     2ea:	c1 11       	cpse	r28, r1
     2ec:	17 c0       	rjmp	.+46     	; 0x31c <bmschip_spi_rw+0x38>
	{
		spi.bytes = size;
     2ee:	60 93 8f 04 	sts	0x048F, r22
		for (i=0; i<size; i++)
     2f2:	66 23       	and	r22, r22
     2f4:	69 f0       	breq	.+26     	; 0x310 <bmschip_spi_rw+0x2c>
     2f6:	e8 2f       	mov	r30, r24
     2f8:	f9 2f       	mov	r31, r25
     2fa:	20 e0       	ldi	r18, 0x00	; 0
     2fc:	30 e0       	ldi	r19, 0x00	; 0
		{
			spi.tx_buffer.b[i] = command[i];
     2fe:	91 91       	ld	r25, Z+
     300:	d9 01       	movw	r26, r18
     302:	a1 59       	subi	r26, 0x91	; 145
     304:	bb 4f       	sbci	r27, 0xFB	; 251
     306:	9c 93       	st	X, r25
     308:	2f 5f       	subi	r18, 0xFF	; 255
     30a:	3f 4f       	sbci	r19, 0xFF	; 255
	uint8_t i;
	
	if (spi.locked==0)		//Beginn des Sendens
	{
		spi.bytes = size;
		for (i=0; i<size; i++)
     30c:	26 17       	cp	r18, r22
     30e:	b8 f3       	brcs	.-18     	; 0x2fe <bmschip_spi_rw+0x1a>
		{
			spi.tx_buffer.b[i] = command[i];
		}
		SPI_CS_LTC6804_LOW;
     310:	41 98       	cbi	0x08, 1	; 8
		
		while(!(spi_start_transmission())); //hier wird spi.locked gesetzt
     312:	0e 94 5d 0c 	call	0x18ba	; 0x18ba <spi_start_transmission>
     316:	88 23       	and	r24, r24
     318:	e1 f3       	breq	.-8      	; 0x312 <bmschip_spi_rw+0x2e>
     31a:	0d c0       	rjmp	.+26     	; 0x336 <bmschip_spi_rw+0x52>
	}
	else if (spi.flag==0)	//weiterschicken
     31c:	c0 91 92 04 	lds	r28, 0x0492
     320:	c1 11       	cpse	r28, r1
     322:	03 c0       	rjmp	.+6      	; 0x32a <bmschip_spi_rw+0x46>
	{
		spi_task();
     324:	0e 94 74 0c 	call	0x18e8	; 0x18e8 <spi_task>
     328:	06 c0       	rjmp	.+12     	; 0x336 <bmschip_spi_rw+0x52>
	}
	else if (spi.flag==1)	//Übertragung fertig
     32a:	80 91 92 04 	lds	r24, 0x0492
     32e:	c1 e0       	ldi	r28, 0x01	; 1
     330:	81 30       	cpi	r24, 0x01	; 1
     332:	09 f0       	breq	.+2      	; 0x336 <bmschip_spi_rw+0x52>
     334:	c0 e0       	ldi	r28, 0x00	; 0
	}
	return 0;
	//Achtung! rx-Array noch übertragen, damit es nicht überschrieben wird
	//NICHT VERGESSEN: SPI_CS_LTC8604_HIGH und spi.locked=0 nach vollständiger Uebertragung in der Hauptfkt. setzen

}
     336:	8c 2f       	mov	r24, r28
     338:	cf 91       	pop	r28
     33a:	08 95       	ret

0000033c <bmschip_writeDischarge>:

void bmschip_writeDischarge(uint16_t cells, uint8_t time)
{
	ltc6804.config[4] = (uint8_t) cells;		//zu balancende Zellen eintragen
     33c:	e8 e5       	ldi	r30, 0x58	; 88
     33e:	f4 e0       	ldi	r31, 0x04	; 4
     340:	84 83       	std	Z+4, r24	; 0x04
	ltc6804.config[5] = (uint8_t) (((time & 0x0F) << 4) | ((cells & 0x0F00) >> 8));		//Balancing-time: Manuell
     342:	88 27       	eor	r24, r24
     344:	9f 70       	andi	r25, 0x0F	; 15
     346:	62 95       	swap	r22
     348:	60 7f       	andi	r22, 0xF0	; 240
     34a:	69 2b       	or	r22, r25
     34c:	65 83       	std	Z+5, r22	; 0x05
     34e:	08 95       	ret

00000350 <bmschip_startAdc>:
	return 0;

}

void bmschip_startAdc(void)
{
     350:	bf 92       	push	r11
     352:	cf 92       	push	r12
     354:	df 92       	push	r13
     356:	ef 92       	push	r14
     358:	ff 92       	push	r15
     35a:	0f 93       	push	r16
     35c:	1f 93       	push	r17
     35e:	cf 93       	push	r28
     360:	df 93       	push	r29
     362:	00 d0       	rcall	.+0      	; 0x364 <bmschip_startAdc+0x14>
     364:	00 d0       	rcall	.+0      	; 0x366 <bmschip_startAdc+0x16>
     366:	cd b7       	in	r28, 0x3d	; 61
     368:	de b7       	in	r29, 0x3e	; 62
	uint8_t i;
	uint8_t cmd[4];
	cmd[0]=0x00;
     36a:	19 82       	std	Y+1, r1	; 0x01
     36c:	68 94       	set
     36e:	bb 24       	eor	r11, r11
     370:	b1 f8       	bld	r11, 1
	
	for (i=0; i<slave_boards; i++)
	{
		while(!(bmschip_spi_rw(cmd, 1)));		//Dummybyte, um den IsoSPI aufzuwecken
		SPI_CS_LTC6804_HIGH;
		spi.locked = 0;
     372:	0f 2e       	mov	r0, r31
     374:	ff e6       	ldi	r31, 0x6F	; 111
     376:	cf 2e       	mov	r12, r31
     378:	f4 e0       	ldi	r31, 0x04	; 4
     37a:	df 2e       	mov	r13, r31
     37c:	f0 2d       	mov	r31, r0
		wait_count = TCNT1;
     37e:	04 e8       	ldi	r16, 0x84	; 132
     380:	10 e0       	ldi	r17, 0x00	; 0
		while ((((wait_count + 25) >= TCNT1)&&(wait_count<TCNT1)) || ((wait_count>TCNT1) && ((TCNT1 + ICR1)<(wait_count + 25))));
     382:	0f 2e       	mov	r0, r31
     384:	f6 e8       	ldi	r31, 0x86	; 134
     386:	ef 2e       	mov	r14, r31
     388:	f1 2c       	mov	r15, r1
     38a:	f0 2d       	mov	r31, r0
	uint8_t cmd[4];
	cmd[0]=0x00;
	
	for (i=0; i<slave_boards; i++)
	{
		while(!(bmschip_spi_rw(cmd, 1)));		//Dummybyte, um den IsoSPI aufzuwecken
     38c:	61 e0       	ldi	r22, 0x01	; 1
     38e:	ce 01       	movw	r24, r28
     390:	01 96       	adiw	r24, 0x01	; 1
     392:	0e 94 72 01 	call	0x2e4	; 0x2e4 <bmschip_spi_rw>
     396:	88 23       	and	r24, r24
     398:	c9 f3       	breq	.-14     	; 0x38c <bmschip_startAdc+0x3c>
		SPI_CS_LTC6804_HIGH;
     39a:	41 9a       	sbi	0x08, 1	; 8
		spi.locked = 0;
     39c:	f6 01       	movw	r30, r12
     39e:	12 a2       	std	Z+34, r1	; 0x22
		wait_count = TCNT1;
     3a0:	f8 01       	movw	r30, r16
     3a2:	40 81       	ld	r20, Z
     3a4:	51 81       	ldd	r21, Z+1	; 0x01
     3a6:	50 93 57 04 	sts	0x0457, r21
     3aa:	40 93 56 04 	sts	0x0456, r20
		while ((((wait_count + 25) >= TCNT1)&&(wait_count<TCNT1)) || ((wait_count>TCNT1) && ((TCNT1 + ICR1)<(wait_count + 25))));
     3ae:	9a 01       	movw	r18, r20
     3b0:	27 5e       	subi	r18, 0xE7	; 231
     3b2:	3f 4f       	sbci	r19, 0xFF	; 255
     3b4:	f8 01       	movw	r30, r16
     3b6:	80 81       	ld	r24, Z
     3b8:	91 81       	ldd	r25, Z+1	; 0x01
     3ba:	28 17       	cp	r18, r24
     3bc:	39 07       	cpc	r19, r25
     3be:	28 f0       	brcs	.+10     	; 0x3ca <bmschip_startAdc+0x7a>
     3c0:	80 81       	ld	r24, Z
     3c2:	91 81       	ldd	r25, Z+1	; 0x01
     3c4:	48 17       	cp	r20, r24
     3c6:	59 07       	cpc	r21, r25
     3c8:	a8 f3       	brcs	.-22     	; 0x3b4 <bmschip_startAdc+0x64>
     3ca:	f8 01       	movw	r30, r16
     3cc:	80 81       	ld	r24, Z
     3ce:	91 81       	ldd	r25, Z+1	; 0x01
     3d0:	84 17       	cp	r24, r20
     3d2:	95 07       	cpc	r25, r21
     3d4:	50 f4       	brcc	.+20     	; 0x3ea <bmschip_startAdc+0x9a>
     3d6:	80 81       	ld	r24, Z
     3d8:	91 81       	ldd	r25, Z+1	; 0x01
     3da:	f7 01       	movw	r30, r14
     3dc:	60 81       	ld	r22, Z
     3de:	71 81       	ldd	r23, Z+1	; 0x01
     3e0:	86 0f       	add	r24, r22
     3e2:	97 1f       	adc	r25, r23
     3e4:	82 17       	cp	r24, r18
     3e6:	93 07       	cpc	r25, r19
     3e8:	28 f3       	brcs	.-54     	; 0x3b4 <bmschip_startAdc+0x64>
     3ea:	ba 94       	dec	r11
{
	uint8_t i;
	uint8_t cmd[4];
	cmd[0]=0x00;
	
	for (i=0; i<slave_boards; i++)
     3ec:	b1 10       	cpse	r11, r1
     3ee:	ce cf       	rjmp	.-100    	; 0x38c <bmschip_startAdc+0x3c>
		wait_count = TCNT1;
		while ((((wait_count + 25) >= TCNT1)&&(wait_count<TCNT1)) || ((wait_count>TCNT1) && ((TCNT1 + ICR1)<(wait_count + 25))));
	}
	
	// Messbefehl
	cmd[0] = 0x03; // ADCV0		Normal-Mode
     3f0:	83 e0       	ldi	r24, 0x03	; 3
     3f2:	89 83       	std	Y+1, r24	; 0x01
	cmd[1] = 0x60; // ADCV1		Normal-Mode, Balancing wird unterbrochen während der Messung
     3f4:	80 e6       	ldi	r24, 0x60	; 96
     3f6:	8a 83       	std	Y+2, r24	; 0x02
	cmd[2] = 0xF4;
     3f8:	84 ef       	ldi	r24, 0xF4	; 244
     3fa:	8b 83       	std	Y+3, r24	; 0x03
	cmd[3] = 0x6C;
     3fc:	8c e6       	ldi	r24, 0x6C	; 108
     3fe:	8c 83       	std	Y+4, r24	; 0x04
	
	// Befehl und PEC schreiben
	
	while(!(bmschip_spi_rw(cmd, 4)));
     400:	64 e0       	ldi	r22, 0x04	; 4
     402:	ce 01       	movw	r24, r28
     404:	01 96       	adiw	r24, 0x01	; 1
     406:	0e 94 72 01 	call	0x2e4	; 0x2e4 <bmschip_spi_rw>
     40a:	88 23       	and	r24, r24
     40c:	c9 f3       	breq	.-14     	; 0x400 <bmschip_startAdc+0xb0>
	
	SPI_CS_LTC6804_HIGH;
     40e:	41 9a       	sbi	0x08, 1	; 8
	spi.locked=0;
     410:	10 92 91 04 	sts	0x0491, r1
}
     414:	0f 90       	pop	r0
     416:	0f 90       	pop	r0
     418:	0f 90       	pop	r0
     41a:	0f 90       	pop	r0
     41c:	df 91       	pop	r29
     41e:	cf 91       	pop	r28
     420:	1f 91       	pop	r17
     422:	0f 91       	pop	r16
     424:	ff 90       	pop	r15
     426:	ef 90       	pop	r14
     428:	df 90       	pop	r13
     42a:	cf 90       	pop	r12
     42c:	bf 90       	pop	r11
     42e:	08 95       	ret

00000430 <Pec15>:
uint16_t Pec15 (uint8_t *data, uint8_t len)
{
	uint16_t remainder = 16;	// PEC seed
	uint16_t address;
	uint8_t i;
	for (i = 0; i < len; i++)
     430:	66 23       	and	r22, r22
     432:	09 f1       	breq	.+66     	; 0x476 <Pec15+0x46>
     434:	dc 01       	movw	r26, r24
     436:	61 50       	subi	r22, 0x01	; 1
     438:	46 2f       	mov	r20, r22
     43a:	50 e0       	ldi	r21, 0x00	; 0
     43c:	4f 5f       	subi	r20, 0xFF	; 255
     43e:	5f 4f       	sbci	r21, 0xFF	; 255
     440:	48 0f       	add	r20, r24
     442:	59 1f       	adc	r21, r25
     444:	80 e1       	ldi	r24, 0x10	; 16
     446:	90 e0       	ldi	r25, 0x00	; 0
	{
		// calculate PEC table address
		address = ((remainder >> 7) ^ data[i]) & 0xFF;
     448:	6d 91       	ld	r22, X+
		remainder = (remainder << 8 ) ^ crc15Table[address];
     44a:	38 2f       	mov	r19, r24
     44c:	22 27       	eor	r18, r18
	uint16_t address;
	uint8_t i;
	for (i = 0; i < len; i++)
	{
		// calculate PEC table address
		address = ((remainder >> 7) ^ data[i]) & 0xFF;
     44e:	fc 01       	movw	r30, r24
     450:	ee 0f       	add	r30, r30
     452:	ef 2f       	mov	r30, r31
     454:	ee 1f       	adc	r30, r30
     456:	ff 0b       	sbc	r31, r31
     458:	f1 95       	neg	r31
     45a:	e6 27       	eor	r30, r22
     45c:	ff 27       	eor	r31, r31
		remainder = (remainder << 8 ) ^ crc15Table[address];
     45e:	ee 0f       	add	r30, r30
     460:	ff 1f       	adc	r31, r31
     462:	e0 5b       	subi	r30, 0xB0	; 176
     464:	fe 4f       	sbci	r31, 0xFE	; 254
     466:	80 81       	ld	r24, Z
     468:	91 81       	ldd	r25, Z+1	; 0x01
     46a:	82 27       	eor	r24, r18
     46c:	93 27       	eor	r25, r19
uint16_t Pec15 (uint8_t *data, uint8_t len)
{
	uint16_t remainder = 16;	// PEC seed
	uint16_t address;
	uint8_t i;
	for (i = 0; i < len; i++)
     46e:	a4 17       	cp	r26, r20
     470:	b5 07       	cpc	r27, r21
     472:	51 f7       	brne	.-44     	; 0x448 <Pec15+0x18>
     474:	02 c0       	rjmp	.+4      	; 0x47a <Pec15+0x4a>

//PEC-Berechnung: Code aus dem Datenblatt von LTC6804 übernommen
//geht schneller, da Lookup-Table verwendet wird
uint16_t Pec15 (uint8_t *data, uint8_t len)
{
	uint16_t remainder = 16;	// PEC seed
     476:	80 e1       	ldi	r24, 0x10	; 16
     478:	90 e0       	ldi	r25, 0x00	; 0
		address = ((remainder >> 7) ^ data[i]) & 0xFF;
		remainder = (remainder << 8 ) ^ crc15Table[address];
	}
	// The CRC15 has a 0 in the LSB so the final value must be multiplied by 2
	return (remainder * 2);
}
     47a:	88 0f       	add	r24, r24
     47c:	99 1f       	adc	r25, r25
     47e:	08 95       	ret

00000480 <bmschip_readConfig>:
		return 0;
}

/***************Konfiguration der Slaves lesen***************************/
uint8_t bmschip_readConfig(uint8_t * cmd, uint8_t size, uint8_t msg)
{
     480:	df 92       	push	r13
     482:	ef 92       	push	r14
     484:	ff 92       	push	r15
     486:	0f 93       	push	r16
     488:	1f 93       	push	r17
     48a:	cf 93       	push	r28
     48c:	df 93       	push	r29
     48e:	8c 01       	movw	r16, r24
     490:	d6 2e       	mov	r13, r22
	uint8_t i;
	uint16_t pec;
	
	
	// Befehl und PEC schreiben
	if (msg==0)
     492:	44 23       	and	r20, r20
     494:	21 f0       	breq	.+8      	; 0x49e <bmschip_readConfig+0x1e>
		while(!(bmschip_spi_rw(cmd, 4)));	//Command
	}
	else
	{										//Config empfangen
		
		for(i=4; i<size; i++)
     496:	84 e0       	ldi	r24, 0x04	; 4
     498:	86 17       	cp	r24, r22
     49a:	a0 f0       	brcs	.+40     	; 0x4c4 <bmschip_readConfig+0x44>
     49c:	1f c0       	rjmp	.+62     	; 0x4dc <bmschip_readConfig+0x5c>
	
	
	// Befehl und PEC schreiben
	if (msg==0)
	{	//für msg == 0 wird der Command gesendet. Das ist immer zuerst notwendig
		cmd[0] = 0x00; // RDCFG0
     49e:	fc 01       	movw	r30, r24
     4a0:	10 82       	st	Z, r1
		cmd[1] = 0x02; // RDCFG1
     4a2:	82 e0       	ldi	r24, 0x02	; 2
     4a4:	81 83       	std	Z+1, r24	; 0x01
		pec = Pec15(cmd, 2);
     4a6:	62 e0       	ldi	r22, 0x02	; 2
     4a8:	c8 01       	movw	r24, r16
     4aa:	0e 94 18 02 	call	0x430	; 0x430 <Pec15>
		cmd[2] = GET_HIGH_BYTE(pec);
     4ae:	f8 01       	movw	r30, r16
     4b0:	92 83       	std	Z+2, r25	; 0x02
		cmd[3] = GET_LOW_BYTE(pec);
     4b2:	83 83       	std	Z+3, r24	; 0x03
		while(!(bmschip_spi_rw(cmd, 4)));	//Command
     4b4:	64 e0       	ldi	r22, 0x04	; 4
     4b6:	c8 01       	movw	r24, r16
     4b8:	0e 94 72 01 	call	0x2e4	; 0x2e4 <bmschip_spi_rw>
     4bc:	88 23       	and	r24, r24
     4be:	d1 f3       	breq	.-12     	; 0x4b4 <bmschip_readConfig+0x34>
			usart_transmit_string("\r\n");
			
			return 1;	//Abbruch falls PEC nicht stimmt
		}
	}
	return 0;
     4c0:	80 e0       	ldi	r24, 0x00	; 0
     4c2:	48 c0       	rjmp	.+144    	; 0x554 <bmschip_readConfig+0xd4>
     4c4:	f8 01       	movw	r30, r16
     4c6:	34 96       	adiw	r30, 0x04	; 4
     4c8:	8b ef       	ldi	r24, 0xFB	; 251
     4ca:	86 0f       	add	r24, r22
     4cc:	90 e0       	ldi	r25, 0x00	; 0
     4ce:	05 96       	adiw	r24, 0x05	; 5
     4d0:	80 0f       	add	r24, r16
     4d2:	91 1f       	adc	r25, r17
	else
	{										//Config empfangen
		
		for(i=4; i<size; i++)
		{
			cmd[i] = 0x00;
     4d4:	11 92       	st	Z+, r1
		while(!(bmschip_spi_rw(cmd, 4)));	//Command
	}
	else
	{										//Config empfangen
		
		for(i=4; i<size; i++)
     4d6:	e8 17       	cp	r30, r24
     4d8:	f9 07       	cpc	r31, r25
     4da:	e1 f7       	brne	.-8      	; 0x4d4 <bmschip_readConfig+0x54>
		{
			cmd[i] = 0x00;
		}
		while(!(bmschip_spi_rw(&cmd[4], 8)));
     4dc:	e8 01       	movw	r28, r16
     4de:	24 96       	adiw	r28, 0x04	; 4
     4e0:	ec 2e       	mov	r14, r28
     4e2:	fd 2e       	mov	r15, r29
     4e4:	68 e0       	ldi	r22, 0x08	; 8
     4e6:	ce 01       	movw	r24, r28
     4e8:	0e 94 72 01 	call	0x2e4	; 0x2e4 <bmschip_spi_rw>
     4ec:	88 23       	and	r24, r24
     4ee:	c1 f3       	breq	.-16     	; 0x4e0 <bmschip_readConfig+0x60>
		for (i=4;i<size;i++)
     4f0:	f4 e0       	ldi	r31, 0x04	; 4
     4f2:	fd 15       	cp	r31, r13
     4f4:	c0 f4       	brcc	.+48     	; 0x526 <bmschip_readConfig+0xa6>
     4f6:	ec 2f       	mov	r30, r28
     4f8:	fd 2f       	mov	r31, r29
     4fa:	4b ef       	ldi	r20, 0xFB	; 251
     4fc:	4d 0d       	add	r20, r13
     4fe:	50 e0       	ldi	r21, 0x00	; 0
     500:	4b 5f       	subi	r20, 0xFB	; 251
     502:	5f 4f       	sbci	r21, 0xFF	; 255
     504:	40 0f       	add	r20, r16
     506:	51 1f       	adc	r21, r17
     508:	8c ef       	ldi	r24, 0xFC	; 252
     50a:	9f ef       	ldi	r25, 0xFF	; 255
     50c:	80 1b       	sub	r24, r16
     50e:	91 0b       	sbc	r25, r17
     510:	dc 01       	movw	r26, r24
     512:	ae 0f       	add	r26, r30
     514:	bf 1f       	adc	r27, r31
		{
			cmd[i]=spi.rx_buffer.b[i-4];	//empfangene Konfiguration übernehmen
     516:	a1 59       	subi	r26, 0x91	; 145
     518:	bb 4f       	sbci	r27, 0xFB	; 251
     51a:	50 96       	adiw	r26, 0x10	; 16
     51c:	2c 91       	ld	r18, X
     51e:	21 93       	st	Z+, r18
		for(i=4; i<size; i++)
		{
			cmd[i] = 0x00;
		}
		while(!(bmschip_spi_rw(&cmd[4], 8)));
		for (i=4;i<size;i++)
     520:	e4 17       	cp	r30, r20
     522:	f5 07       	cpc	r31, r21
     524:	a9 f7       	brne	.-22     	; 0x510 <bmschip_readConfig+0x90>
		{
			cmd[i]=spi.rx_buffer.b[i-4];	//empfangene Konfiguration übernehmen
		}
		
		// Auswertung
		pec = Pec15(&cmd[4], 6);
     526:	66 e0       	ldi	r22, 0x06	; 6
     528:	8e 2d       	mov	r24, r14
     52a:	9f 2d       	mov	r25, r15
     52c:	0e 94 18 02 	call	0x430	; 0x430 <Pec15>
		if(GET_HIGH_BYTE(pec) != cmd[10] ||
     530:	f8 01       	movw	r30, r16
     532:	22 85       	ldd	r18, Z+10	; 0x0a
     534:	29 13       	cpse	r18, r25
     536:	03 c0       	rjmp	.+6      	; 0x53e <bmschip_readConfig+0xbe>
     538:	93 85       	ldd	r25, Z+11	; 0x0b
     53a:	98 17       	cp	r25, r24
     53c:	51 f0       	breq	.+20     	; 0x552 <bmschip_readConfig+0xd2>
		GET_LOW_BYTE(pec) != cmd[11])
		{
			usart_transmit_string("PEC stimmt nicht!");
     53e:	87 e0       	ldi	r24, 0x07	; 7
     540:	91 e0       	ldi	r25, 0x01	; 1
     542:	0e 94 9b 0d 	call	0x1b36	; 0x1b36 <usart_transmit_string>
			usart_transmit_string("\r\n");
     546:	81 ef       	ldi	r24, 0xF1	; 241
     548:	93 e0       	ldi	r25, 0x03	; 3
     54a:	0e 94 9b 0d 	call	0x1b36	; 0x1b36 <usart_transmit_string>
			
			return 1;	//Abbruch falls PEC nicht stimmt
     54e:	81 e0       	ldi	r24, 0x01	; 1
     550:	01 c0       	rjmp	.+2      	; 0x554 <bmschip_readConfig+0xd4>
		}
	}
	return 0;
     552:	80 e0       	ldi	r24, 0x00	; 0

}
     554:	df 91       	pop	r29
     556:	cf 91       	pop	r28
     558:	1f 91       	pop	r17
     55a:	0f 91       	pop	r16
     55c:	ff 90       	pop	r15
     55e:	ef 90       	pop	r14
     560:	df 90       	pop	r13
     562:	08 95       	ret

00000564 <bmschip_writeConfig>:
	ltc6804.config[4] = (uint8_t) cells;		//zu balancende Zellen eintragen
	ltc6804.config[5] = (uint8_t) (((time & 0x0F) << 4) | ((cells & 0x0F00) >> 8));		//Balancing-time: Manuell
}

uint8_t bmschip_writeConfig(void)
{
     564:	7f 92       	push	r7
     566:	8f 92       	push	r8
     568:	9f 92       	push	r9
     56a:	af 92       	push	r10
     56c:	bf 92       	push	r11
     56e:	cf 92       	push	r12
     570:	df 92       	push	r13
     572:	ef 92       	push	r14
     574:	ff 92       	push	r15
     576:	0f 93       	push	r16
     578:	1f 93       	push	r17
     57a:	cf 93       	push	r28
     57c:	df 93       	push	r29
     57e:	cd b7       	in	r28, 0x3d	; 61
     580:	de b7       	in	r29, 0x3e	; 62
     582:	68 97       	sbiw	r28, 0x18	; 24
     584:	0f b6       	in	r0, 0x3f	; 63
     586:	f8 94       	cli
     588:	de bf       	out	0x3e, r29	; 62
     58a:	0f be       	out	0x3f, r0	; 63
     58c:	cd bf       	out	0x3d, r28	; 61
	uint8_t size = 12, i, j;
	uint8_t cmd[size], cmdAns[size];
	uint16_t pec;

	// Konfigurationsbefehl
	cmd[0] = 0x00; // WRCFG0
     58e:	19 82       	std	Y+1, r1	; 0x01
	cmd[1] = 0x01; // WRCFG1
     590:	81 e0       	ldi	r24, 0x01	; 1
     592:	8a 83       	std	Y+2, r24	; 0x02
	pec = Pec15(cmd, 2);
     594:	62 e0       	ldi	r22, 0x02	; 2
     596:	ce 01       	movw	r24, r28
     598:	01 96       	adiw	r24, 0x01	; 1
     59a:	0e 94 18 02 	call	0x430	; 0x430 <Pec15>
	
	cmd[2] = GET_HIGH_BYTE(pec);
     59e:	9b 83       	std	Y+3, r25	; 0x03
	cmd[3] = GET_LOW_BYTE(pec);
     5a0:	8c 83       	std	Y+4, r24	; 0x04
     5a2:	68 94       	set
     5a4:	77 24       	eor	r7, r7
     5a6:	71 f8       	bld	r7, 1
	for (i=0; i<slave_boards; i++)
	{
		while(!(bmschip_spi_rw(cmd, 1)));		//Dummybyte, um den IsoSPI aufzuwecken
		
		SPI_CS_LTC6804_HIGH;
		spi.locked=0;
     5a8:	0f 2e       	mov	r0, r31
     5aa:	ff e6       	ldi	r31, 0x6F	; 111
     5ac:	cf 2e       	mov	r12, r31
     5ae:	f4 e0       	ldi	r31, 0x04	; 4
     5b0:	df 2e       	mov	r13, r31
     5b2:	f0 2d       	mov	r31, r0
		wait_count = TCNT1;
     5b4:	04 e8       	ldi	r16, 0x84	; 132
     5b6:	10 e0       	ldi	r17, 0x00	; 0
		while ((((wait_count + 25) >= TCNT1)&&(wait_count<TCNT1)) || ((wait_count>TCNT1) && ((TCNT1 + ICR1)<(wait_count + 25))));
     5b8:	0f 2e       	mov	r0, r31
     5ba:	f6 e8       	ldi	r31, 0x86	; 134
     5bc:	ef 2e       	mov	r14, r31
     5be:	f1 2c       	mov	r15, r1
     5c0:	f0 2d       	mov	r31, r0
	
	// Befehl und PEC schreiben
	
	for (i=0; i<slave_boards; i++)
	{
		while(!(bmschip_spi_rw(cmd, 1)));		//Dummybyte, um den IsoSPI aufzuwecken
     5c2:	61 e0       	ldi	r22, 0x01	; 1
     5c4:	ce 01       	movw	r24, r28
     5c6:	01 96       	adiw	r24, 0x01	; 1
     5c8:	0e 94 72 01 	call	0x2e4	; 0x2e4 <bmschip_spi_rw>
     5cc:	88 23       	and	r24, r24
     5ce:	c9 f3       	breq	.-14     	; 0x5c2 <bmschip_writeConfig+0x5e>
		
		SPI_CS_LTC6804_HIGH;
     5d0:	41 9a       	sbi	0x08, 1	; 8
		spi.locked=0;
     5d2:	f6 01       	movw	r30, r12
     5d4:	12 a2       	std	Z+34, r1	; 0x22
		wait_count = TCNT1;
     5d6:	f8 01       	movw	r30, r16
     5d8:	40 81       	ld	r20, Z
     5da:	51 81       	ldd	r21, Z+1	; 0x01
     5dc:	50 93 57 04 	sts	0x0457, r21
     5e0:	40 93 56 04 	sts	0x0456, r20
		while ((((wait_count + 25) >= TCNT1)&&(wait_count<TCNT1)) || ((wait_count>TCNT1) && ((TCNT1 + ICR1)<(wait_count + 25))));
     5e4:	9a 01       	movw	r18, r20
     5e6:	27 5e       	subi	r18, 0xE7	; 231
     5e8:	3f 4f       	sbci	r19, 0xFF	; 255
     5ea:	f8 01       	movw	r30, r16
     5ec:	80 81       	ld	r24, Z
     5ee:	91 81       	ldd	r25, Z+1	; 0x01
     5f0:	28 17       	cp	r18, r24
     5f2:	39 07       	cpc	r19, r25
     5f4:	28 f0       	brcs	.+10     	; 0x600 <bmschip_writeConfig+0x9c>
     5f6:	80 81       	ld	r24, Z
     5f8:	91 81       	ldd	r25, Z+1	; 0x01
     5fa:	48 17       	cp	r20, r24
     5fc:	59 07       	cpc	r21, r25
     5fe:	a8 f3       	brcs	.-22     	; 0x5ea <bmschip_writeConfig+0x86>
     600:	f8 01       	movw	r30, r16
     602:	80 81       	ld	r24, Z
     604:	91 81       	ldd	r25, Z+1	; 0x01
     606:	84 17       	cp	r24, r20
     608:	95 07       	cpc	r25, r21
     60a:	50 f4       	brcc	.+20     	; 0x620 <bmschip_writeConfig+0xbc>
     60c:	80 81       	ld	r24, Z
     60e:	91 81       	ldd	r25, Z+1	; 0x01
     610:	f7 01       	movw	r30, r14
     612:	60 81       	ld	r22, Z
     614:	71 81       	ldd	r23, Z+1	; 0x01
     616:	86 0f       	add	r24, r22
     618:	97 1f       	adc	r25, r23
     61a:	82 17       	cp	r24, r18
     61c:	93 07       	cpc	r25, r19
     61e:	28 f3       	brcs	.-54     	; 0x5ea <bmschip_writeConfig+0x86>
     620:	7a 94       	dec	r7
	cmd[2] = GET_HIGH_BYTE(pec);
	cmd[3] = GET_LOW_BYTE(pec);
	
	// Befehl und PEC schreiben
	
	for (i=0; i<slave_boards; i++)
     622:	71 10       	cpse	r7, r1
     624:	ce cf       	rjmp	.-100    	; 0x5c2 <bmschip_writeConfig+0x5e>
		spi.locked=0;
		wait_count = TCNT1;
		while ((((wait_count + 25) >= TCNT1)&&(wait_count<TCNT1)) || ((wait_count>TCNT1) && ((TCNT1 + ICR1)<(wait_count + 25))));
	}
		
	while(!(bmschip_spi_rw(cmd, 4)));	//Command schicken
     626:	64 e0       	ldi	r22, 0x04	; 4
     628:	ce 01       	movw	r24, r28
     62a:	01 96       	adiw	r24, 0x01	; 1
     62c:	0e 94 72 01 	call	0x2e4	; 0x2e4 <bmschip_spi_rw>
     630:	88 23       	and	r24, r24
     632:	c9 f3       	breq	.-14     	; 0x626 <bmschip_writeConfig+0xc2>
	//NICHT CS auf HIGH setzen! Jetzt Uebertragung der einzelnen Chip-Configs
	spi.locked=0;
     634:	10 92 91 04 	sts	0x0491, r1
     638:	0f 2e       	mov	r0, r31
     63a:	f8 e7       	ldi	r31, 0x78	; 120
     63c:	ef 2e       	mov	r14, r31
     63e:	f6 e0       	ldi	r31, 0x06	; 6
     640:	ff 2e       	mov	r15, r31
     642:	f0 2d       	mov	r31, r0
     644:	0f 2e       	mov	r0, r31
     646:	f4 e7       	ldi	r31, 0x74	; 116
     648:	8f 2e       	mov	r8, r31
     64a:	f6 e0       	ldi	r31, 0x06	; 6
     64c:	9f 2e       	mov	r9, r31
     64e:	f0 2d       	mov	r31, r0
	for (i=0;i<slave_boards;i++)
	{
		if(IS_TRUE(bal_active))		//Abfrage, ob gebalanced werden darf
     650:	0f 2e       	mov	r0, r31
     652:	fb ee       	ldi	r31, 0xEB	; 235
     654:	af 2e       	mov	r10, r31
     656:	f4 e0       	ldi	r31, 0x04	; 4
     658:	bf 2e       	mov	r11, r31
     65a:	f0 2d       	mov	r31, r0
		{
			bmschip_writeDischarge(bms.balancing.cells[slave_boards-i-1], 0x1);
		}
		else
		{
			ltc6804.config[4]=0x00;
     65c:	08 e5       	ldi	r16, 0x58	; 88
     65e:	14 e0       	ldi	r17, 0x04	; 4
		pec = Pec15(&(cmd[4]), 6);
		cmd[10] = GET_HIGH_BYTE(pec);
		cmd[11] = GET_LOW_BYTE(pec);
		
		while(!(bmschip_spi_rw(&cmd[4], 8)));
		spi.locked=0;
     660:	0f 2e       	mov	r0, r31
     662:	ff e6       	ldi	r31, 0x6F	; 111
     664:	cf 2e       	mov	r12, r31
     666:	f4 e0       	ldi	r31, 0x04	; 4
     668:	df 2e       	mov	r13, r31
     66a:	f0 2d       	mov	r31, r0
	while(!(bmschip_spi_rw(cmd, 4)));	//Command schicken
	//NICHT CS auf HIGH setzen! Jetzt Uebertragung der einzelnen Chip-Configs
	spi.locked=0;
	for (i=0;i<slave_boards;i++)
	{
		if(IS_TRUE(bal_active))		//Abfrage, ob gebalanced werden darf
     66c:	f5 01       	movw	r30, r10
     66e:	80 81       	ld	r24, Z
     670:	86 71       	andi	r24, 0x16	; 22
     672:	86 31       	cpi	r24, 0x16	; 22
     674:	39 f4       	brne	.+14     	; 0x684 <bmschip_writeConfig+0x120>
		{
			bmschip_writeDischarge(bms.balancing.cells[slave_boards-i-1], 0x1);
     676:	61 e0       	ldi	r22, 0x01	; 1
     678:	f7 01       	movw	r30, r14
     67a:	80 81       	ld	r24, Z
     67c:	91 81       	ldd	r25, Z+1	; 0x01
     67e:	0e 94 9e 01 	call	0x33c	; 0x33c <bmschip_writeDischarge>
     682:	03 c0       	rjmp	.+6      	; 0x68a <bmschip_writeConfig+0x126>
		}
		else
		{
			ltc6804.config[4]=0x00;
     684:	f8 01       	movw	r30, r16
     686:	14 82       	std	Z+4, r1	; 0x04
			ltc6804.config[5]=0x00;
     688:	15 82       	std	Z+5, r1	; 0x05
		}
		// Konfigurationsdaten der einzelnen Slaves
		cmd[4] = ltc6804.config[0];
     68a:	f8 01       	movw	r30, r16
     68c:	80 81       	ld	r24, Z
     68e:	8d 83       	std	Y+5, r24	; 0x05
		cmd[5] = ltc6804.config[1];
     690:	81 81       	ldd	r24, Z+1	; 0x01
     692:	8e 83       	std	Y+6, r24	; 0x06
		cmd[6] = ltc6804.config[2];
     694:	82 81       	ldd	r24, Z+2	; 0x02
     696:	8f 83       	std	Y+7, r24	; 0x07
		cmd[7] = ltc6804.config[3];
     698:	83 81       	ldd	r24, Z+3	; 0x03
     69a:	88 87       	std	Y+8, r24	; 0x08
		cmd[8] = ltc6804.config[4];
     69c:	84 81       	ldd	r24, Z+4	; 0x04
     69e:	89 87       	std	Y+9, r24	; 0x09
		cmd[9] = ltc6804.config[5];
     6a0:	85 81       	ldd	r24, Z+5	; 0x05
     6a2:	8a 87       	std	Y+10, r24	; 0x0a
		pec = Pec15(&(cmd[4]), 6);
     6a4:	66 e0       	ldi	r22, 0x06	; 6
     6a6:	ce 01       	movw	r24, r28
     6a8:	05 96       	adiw	r24, 0x05	; 5
     6aa:	0e 94 18 02 	call	0x430	; 0x430 <Pec15>
		cmd[10] = GET_HIGH_BYTE(pec);
     6ae:	9b 87       	std	Y+11, r25	; 0x0b
		cmd[11] = GET_LOW_BYTE(pec);
     6b0:	8c 87       	std	Y+12, r24	; 0x0c
		
		while(!(bmschip_spi_rw(&cmd[4], 8)));
     6b2:	68 e0       	ldi	r22, 0x08	; 8
     6b4:	ce 01       	movw	r24, r28
     6b6:	05 96       	adiw	r24, 0x05	; 5
     6b8:	0e 94 72 01 	call	0x2e4	; 0x2e4 <bmschip_spi_rw>
     6bc:	88 23       	and	r24, r24
     6be:	c9 f3       	breq	.-14     	; 0x6b2 <bmschip_writeConfig+0x14e>
		spi.locked=0;
     6c0:	f6 01       	movw	r30, r12
     6c2:	12 a2       	std	Z+34, r1	; 0x22
     6c4:	f2 e0       	ldi	r31, 0x02	; 2
     6c6:	ef 1a       	sub	r14, r31
     6c8:	f1 08       	sbc	r15, r1
	}
		
	while(!(bmschip_spi_rw(cmd, 4)));	//Command schicken
	//NICHT CS auf HIGH setzen! Jetzt Uebertragung der einzelnen Chip-Configs
	spi.locked=0;
	for (i=0;i<slave_boards;i++)
     6ca:	e8 14       	cp	r14, r8
     6cc:	f9 04       	cpc	r15, r9
     6ce:	71 f6       	brne	.-100    	; 0x66c <bmschip_writeConfig+0x108>
		
		while(!(bmschip_spi_rw(&cmd[4], 8)));
		spi.locked=0;
	}
	
	SPI_CS_LTC6804_HIGH;
     6d0:	41 9a       	sbi	0x08, 1	; 8
	spi.locked=0;
     6d2:	10 92 91 04 	sts	0x0491, r1
     6d6:	bb 24       	eor	r11, r11
     6d8:	b3 94       	inc	r11
				usart_transmit_string("Fehler bei read config");
				usart_transmit_string("\r\n");
				return 1;
			}
			
			if(IS_FALSE(bal_active))	//nicht beim Balancing, sondern bei Neukonfiguration
     6da:	0b ee       	ldi	r16, 0xEB	; 235
     6dc:	14 e0       	ldi	r17, 0x04	; 4
							return 1;
						}
					}
				}
			}
			spi.locked = 0; //SPI muss freigegeben werden, wenn current_byte neu gesetzt werden soll
     6de:	0f 2e       	mov	r0, r31
     6e0:	ff e6       	ldi	r31, 0x6F	; 111
     6e2:	ef 2e       	mov	r14, r31
     6e4:	f4 e0       	ldi	r31, 0x04	; 4
     6e6:	ff 2e       	mov	r15, r31
     6e8:	f0 2d       	mov	r31, r0
				{
					for(j=5;j<10;j++)			//erstes Byte vorerst nicht, da beim Lesen an GPIOs NICHT die Konfiguration
												//sondern anliegende Spannung ausgegeben wird
					{
				
						if(cmdAns[j] != ltc6804.config[j-4])
     6ea:	0f 2e       	mov	r0, r31
     6ec:	f8 e5       	ldi	r31, 0x58	; 88
     6ee:	cf 2e       	mov	r12, r31
     6f0:	f4 e0       	ldi	r31, 0x04	; 4
     6f2:	df 2e       	mov	r13, r31
     6f4:	f0 2d       	mov	r31, r0
     6f6:	68 94       	set
     6f8:	99 24       	eor	r9, r9
     6fa:	91 f8       	bld	r9, 1
     6fc:	a1 2c       	mov	r10, r1
     6fe:	02 c0       	rjmp	.+4      	; 0x704 <bmschip_writeConfig+0x1a0>
     700:	73 94       	inc	r7
     702:	b3 94       	inc	r11
	// Config lesen zur Kontrolle
	
	
		for (i=0; i<=slave_boards; i++)		//der Reihe nach wird jetzt die Konfiguration  der Boards eingeholt
		{
			if(bmschip_readConfig(cmdAns, size, i) != 0)		//Konfiguration der Zellen auslesen
     704:	47 2d       	mov	r20, r7
     706:	6c e0       	ldi	r22, 0x0C	; 12
     708:	ce 01       	movw	r24, r28
     70a:	0d 96       	adiw	r24, 0x0d	; 13
     70c:	0e 94 40 02 	call	0x480	; 0x480 <bmschip_readConfig>
     710:	88 23       	and	r24, r24
     712:	69 f0       	breq	.+26     	; 0x72e <bmschip_writeConfig+0x1ca>
			{
				SPI_CS_LTC6804_HIGH;
     714:	41 9a       	sbi	0x08, 1	; 8
				spi.locked=0;
     716:	10 92 91 04 	sts	0x0491, r1
				usart_transmit_string("Fehler bei read config");
     71a:	89 e1       	ldi	r24, 0x19	; 25
     71c:	91 e0       	ldi	r25, 0x01	; 1
     71e:	0e 94 9b 0d 	call	0x1b36	; 0x1b36 <usart_transmit_string>
				usart_transmit_string("\r\n");
     722:	81 ef       	ldi	r24, 0xF1	; 241
     724:	93 e0       	ldi	r25, 0x03	; 3
     726:	0e 94 9b 0d 	call	0x1b36	; 0x1b36 <usart_transmit_string>
				return 1;
     72a:	81 e0       	ldi	r24, 0x01	; 1
     72c:	35 c0       	rjmp	.+106    	; 0x798 <bmschip_writeConfig+0x234>
			}
			
			if(IS_FALSE(bal_active))	//nicht beim Balancing, sondern bei Neukonfiguration
     72e:	f8 01       	movw	r30, r16
     730:	90 81       	ld	r25, Z
     732:	96 71       	andi	r25, 0x16	; 22
     734:	21 f5       	brne	.+72     	; 0x77e <bmschip_writeConfig+0x21a>
			{
				// Gelesene Config auswerten
				if (i != 0) //nicht beim Senden der Konfig
     736:	77 20       	and	r7, r7
     738:	61 f1       	breq	.+88     	; 0x792 <bmschip_writeConfig+0x22e>
				{
					for(j=5;j<10;j++)			//erstes Byte vorerst nicht, da beim Lesen an GPIOs NICHT die Konfiguration
												//sondern anliegende Spannung ausgegeben wird
					{
				
						if(cmdAns[j] != ltc6804.config[j-4])
     73a:	f6 01       	movw	r30, r12
     73c:	91 81       	ldd	r25, Z+1	; 0x01
     73e:	2a 89       	ldd	r18, Y+18	; 0x12
     740:	29 13       	cpse	r18, r25
     742:	0b c0       	rjmp	.+22     	; 0x75a <bmschip_writeConfig+0x1f6>
     744:	fe 01       	movw	r30, r28
     746:	73 96       	adiw	r30, 0x13	; 19
     748:	29 2d       	mov	r18, r9
     74a:	3a 2d       	mov	r19, r10
     74c:	41 91       	ld	r20, Z+
     74e:	d9 01       	movw	r26, r18
     750:	a8 5a       	subi	r26, 0xA8	; 168
     752:	bb 4f       	sbci	r27, 0xFB	; 251
     754:	9c 91       	ld	r25, X
     756:	49 17       	cp	r20, r25
     758:	69 f0       	breq	.+26     	; 0x774 <bmschip_writeConfig+0x210>
						{
							SPI_CS_LTC6804_HIGH;
     75a:	41 9a       	sbi	0x08, 1	; 8
							spi.locked=0;
     75c:	10 92 91 04 	sts	0x0491, r1
							usart_transmit_string("Fehler bei Konfig-Vergleich!");
     760:	80 e3       	ldi	r24, 0x30	; 48
     762:	91 e0       	ldi	r25, 0x01	; 1
     764:	0e 94 9b 0d 	call	0x1b36	; 0x1b36 <usart_transmit_string>
							usart_transmit_string("\r\n");
     768:	81 ef       	ldi	r24, 0xF1	; 241
     76a:	93 e0       	ldi	r25, 0x03	; 3
     76c:	0e 94 9b 0d 	call	0x1b36	; 0x1b36 <usart_transmit_string>
							return 1;
     770:	81 e0       	ldi	r24, 0x01	; 1
     772:	12 c0       	rjmp	.+36     	; 0x798 <bmschip_writeConfig+0x234>
     774:	2f 5f       	subi	r18, 0xFF	; 255
     776:	3f 4f       	sbci	r19, 0xFF	; 255
			if(IS_FALSE(bal_active))	//nicht beim Balancing, sondern bei Neukonfiguration
			{
				// Gelesene Config auswerten
				if (i != 0) //nicht beim Senden der Konfig
				{
					for(j=5;j<10;j++)			//erstes Byte vorerst nicht, da beim Lesen an GPIOs NICHT die Konfiguration
     778:	26 30       	cpi	r18, 0x06	; 6
     77a:	31 05       	cpc	r19, r1
     77c:	39 f7       	brne	.-50     	; 0x74c <bmschip_writeConfig+0x1e8>
							return 1;
						}
					}
				}
			}
			spi.locked = 0; //SPI muss freigegeben werden, wenn current_byte neu gesetzt werden soll
     77e:	f7 01       	movw	r30, r14
     780:	12 a2       	std	Z+34, r1	; 0x22
	spi.locked=0;
	
	// Config lesen zur Kontrolle
	
	
		for (i=0; i<=slave_boards; i++)		//der Reihe nach wird jetzt die Konfiguration  der Boards eingeholt
     782:	f2 e0       	ldi	r31, 0x02	; 2
     784:	fb 15       	cp	r31, r11
     786:	08 f0       	brcs	.+2      	; 0x78a <bmschip_writeConfig+0x226>
     788:	bb cf       	rjmp	.-138    	; 0x700 <bmschip_writeConfig+0x19c>
					}
				}
			}
			spi.locked = 0; //SPI muss freigegeben werden, wenn current_byte neu gesetzt werden soll
		}
		SPI_CS_LTC6804_HIGH;
     78a:	41 9a       	sbi	0x08, 1	; 8
		spi.locked=0;
     78c:	10 92 91 04 	sts	0x0491, r1
		
		return 0;
     790:	03 c0       	rjmp	.+6      	; 0x798 <bmschip_writeConfig+0x234>
							return 1;
						}
					}
				}
			}
			spi.locked = 0; //SPI muss freigegeben werden, wenn current_byte neu gesetzt werden soll
     792:	f7 01       	movw	r30, r14
     794:	12 a2       	std	Z+34, r1	; 0x22
     796:	b4 cf       	rjmp	.-152    	; 0x700 <bmschip_writeConfig+0x19c>
		}
		SPI_CS_LTC6804_HIGH;
		spi.locked=0;
		
		return 0;
}
     798:	68 96       	adiw	r28, 0x18	; 24
     79a:	0f b6       	in	r0, 0x3f	; 63
     79c:	f8 94       	cli
     79e:	de bf       	out	0x3e, r29	; 62
     7a0:	0f be       	out	0x3f, r0	; 63
     7a2:	cd bf       	out	0x3d, r28	; 61
     7a4:	df 91       	pop	r29
     7a6:	cf 91       	pop	r28
     7a8:	1f 91       	pop	r17
     7aa:	0f 91       	pop	r16
     7ac:	ff 90       	pop	r15
     7ae:	ef 90       	pop	r14
     7b0:	df 90       	pop	r13
     7b2:	cf 90       	pop	r12
     7b4:	bf 90       	pop	r11
     7b6:	af 90       	pop	r10
     7b8:	9f 90       	pop	r9
     7ba:	8f 90       	pop	r8
     7bc:	7f 90       	pop	r7
     7be:	08 95       	ret

000007c0 <bmschip_init>:
//Initialisierung
*/

//Initialisierung der LTC6804 - Slaves
void bmschip_init(uint16_t undervoltage, uint16_t overvoltage)
{
     7c0:	bf 92       	push	r11
     7c2:	cf 92       	push	r12
     7c4:	df 92       	push	r13
     7c6:	ef 92       	push	r14
     7c8:	ff 92       	push	r15
     7ca:	0f 93       	push	r16
     7cc:	1f 93       	push	r17
     7ce:	cf 93       	push	r28
     7d0:	df 93       	push	r29
     7d2:	1f 92       	push	r1
     7d4:	cd b7       	in	r28, 0x3d	; 61
     7d6:	de b7       	in	r29, 0x3e	; 62
	uint8_t i, cmd=0x00;
     7d8:	19 82       	std	Y+1, r1	; 0x01
	uint8_t *p_cmd = &cmd;
	
	// Befehlsregister fuer Zellspannungen lesen initialisieren
	ltc6804.adcv[0][0] = 0x00;		//Group A
     7da:	e8 e5       	ldi	r30, 0x58	; 88
     7dc:	f4 e0       	ldi	r31, 0x04	; 4
     7de:	16 82       	std	Z+6, r1	; 0x06
	ltc6804.adcv[0][1] = 0x04;
     7e0:	84 e0       	ldi	r24, 0x04	; 4
     7e2:	87 83       	std	Z+7, r24	; 0x07
	ltc6804.adcv[0][2] = 0x07;
     7e4:	97 e0       	ldi	r25, 0x07	; 7
     7e6:	90 87       	std	Z+8, r25	; 0x08
	ltc6804.adcv[0][3] = 0xc2;
     7e8:	92 ec       	ldi	r25, 0xC2	; 194
     7ea:	91 87       	std	Z+9, r25	; 0x09
	ltc6804.adcv[1][0] = 0x00;		//Group B
     7ec:	12 86       	std	Z+10, r1	; 0x0a
	ltc6804.adcv[1][1] = 0x06;
     7ee:	96 e0       	ldi	r25, 0x06	; 6
     7f0:	93 87       	std	Z+11, r25	; 0x0b
	ltc6804.adcv[1][2] = 0x9a;
     7f2:	9a e9       	ldi	r25, 0x9A	; 154
     7f4:	94 87       	std	Z+12, r25	; 0x0c
	ltc6804.adcv[1][3] = 0x94;
     7f6:	94 e9       	ldi	r25, 0x94	; 148
     7f8:	95 87       	std	Z+13, r25	; 0x0d
	ltc6804.adcv[2][0] = 0x00;		//Group C
     7fa:	16 86       	std	Z+14, r1	; 0x0e
	ltc6804.adcv[2][1] = 0x08;
     7fc:	98 e0       	ldi	r25, 0x08	; 8
     7fe:	97 87       	std	Z+15, r25	; 0x0f
	ltc6804.adcv[2][2] = 0x5e;
     800:	9e e5       	ldi	r25, 0x5E	; 94
     802:	90 8b       	std	Z+16, r25	; 0x10
	ltc6804.adcv[2][3] = 0x52;
     804:	92 e5       	ldi	r25, 0x52	; 82
     806:	91 8b       	std	Z+17, r25	; 0x11
	ltc6804.adcv[3][0] = 0x00;		//Group D
     808:	12 8a       	std	Z+18, r1	; 0x12
	ltc6804.adcv[3][1] = 0x0A;
     80a:	9a e0       	ldi	r25, 0x0A	; 10
     80c:	93 8b       	std	Z+19, r25	; 0x13
	ltc6804.adcv[3][2] = 0xc3;
     80e:	93 ec       	ldi	r25, 0xC3	; 195
     810:	94 8b       	std	Z+20, r25	; 0x14
	ltc6804.adcv[3][3] = 0x04;
     812:	85 8b       	std	Z+21, r24	; 0x15
	
	for(i=0; i<slave_boards; i++)		//keine Zelle darf zu Beginn gebalanced werden
	{
		bms.balancing.cells[i]= 0x0000;
     814:	10 92 77 06 	sts	0x0677, r1
     818:	10 92 76 06 	sts	0x0676, r1
     81c:	10 92 79 06 	sts	0x0679, r1
     820:	10 92 78 06 	sts	0x0678, r1
	}
	bms.bms_Flags = 0x00;				//alle Flags erst einmal ausschalten
     824:	10 92 eb 04 	sts	0x04EB, r1
	
	bms.balancing.undervoltage = UNDERVOLT;	//erwuenschte Unterspannung übertragen
     828:	88 ea       	ldi	r24, 0xA8	; 168
     82a:	91 e6       	ldi	r25, 0x61	; 97
     82c:	90 93 9b 06 	sts	0x069B, r25
     830:	80 93 9a 06 	sts	0x069A, r24
	bms.balancing.overvoltage = OVERVOLT;	//erwuenschte Ueberspannung übertragen
     834:	80 e1       	ldi	r24, 0x10	; 16
     836:	94 ea       	ldi	r25, 0xA4	; 164
     838:	90 93 9d 06 	sts	0x069D, r25
     83c:	80 93 9c 06 	sts	0x069C, r24
	bmschip_setOvUnVoltage(&bms.balancing.undervoltage, &bms.balancing.overvoltage); //Tatsauechlich moegliche Grenzen für den LTC6804 bestimmen
     840:	6c e9       	ldi	r22, 0x9C	; 156
     842:	76 e0       	ldi	r23, 0x06	; 6
     844:	8a e9       	ldi	r24, 0x9A	; 154
     846:	96 e0       	ldi	r25, 0x06	; 6
     848:	0e 94 1a 01 	call	0x234	; 0x234 <bmschip_setOvUnVoltage>
     84c:	68 94       	set
     84e:	bb 24       	eor	r11, r11
     850:	b1 f8       	bld	r11, 1
	for (i=0; i<slave_boards; i++)
	{
		while(!(bmschip_spi_rw(p_cmd, 1)));		//Dummybyte, um den isoSPI das erste mal aufzuwecken
		
		SPI_CS_LTC6804_HIGH;
		spi.locked=0;
     852:	0f 2e       	mov	r0, r31
     854:	ff e6       	ldi	r31, 0x6F	; 111
     856:	cf 2e       	mov	r12, r31
     858:	f4 e0       	ldi	r31, 0x04	; 4
     85a:	df 2e       	mov	r13, r31
     85c:	f0 2d       	mov	r31, r0
		wait_count = TCNT1;
     85e:	04 e8       	ldi	r16, 0x84	; 132
     860:	10 e0       	ldi	r17, 0x00	; 0
		while ((((wait_count + 800) >= TCNT1)&&(wait_count<TCNT1)) || ((wait_count>TCNT1) && ((TCNT1 + ICR1)<(wait_count + 800))));
     862:	0f 2e       	mov	r0, r31
     864:	f6 e8       	ldi	r31, 0x86	; 134
     866:	ef 2e       	mov	r14, r31
     868:	f1 2c       	mov	r15, r1
     86a:	f0 2d       	mov	r31, r0
	bms.balancing.undervoltage = UNDERVOLT;	//erwuenschte Unterspannung übertragen
	bms.balancing.overvoltage = OVERVOLT;	//erwuenschte Ueberspannung übertragen
	bmschip_setOvUnVoltage(&bms.balancing.undervoltage, &bms.balancing.overvoltage); //Tatsauechlich moegliche Grenzen für den LTC6804 bestimmen
	for (i=0; i<slave_boards; i++)
	{
		while(!(bmschip_spi_rw(p_cmd, 1)));		//Dummybyte, um den isoSPI das erste mal aufzuwecken
     86c:	61 e0       	ldi	r22, 0x01	; 1
     86e:	ce 01       	movw	r24, r28
     870:	01 96       	adiw	r24, 0x01	; 1
     872:	0e 94 72 01 	call	0x2e4	; 0x2e4 <bmschip_spi_rw>
     876:	88 23       	and	r24, r24
     878:	c9 f3       	breq	.-14     	; 0x86c <bmschip_init+0xac>
		
		SPI_CS_LTC6804_HIGH;
     87a:	41 9a       	sbi	0x08, 1	; 8
		spi.locked=0;
     87c:	f6 01       	movw	r30, r12
     87e:	12 a2       	std	Z+34, r1	; 0x22
		wait_count = TCNT1;
     880:	f8 01       	movw	r30, r16
     882:	40 81       	ld	r20, Z
     884:	51 81       	ldd	r21, Z+1	; 0x01
     886:	50 93 57 04 	sts	0x0457, r21
     88a:	40 93 56 04 	sts	0x0456, r20
		while ((((wait_count + 800) >= TCNT1)&&(wait_count<TCNT1)) || ((wait_count>TCNT1) && ((TCNT1 + ICR1)<(wait_count + 800))));
     88e:	9a 01       	movw	r18, r20
     890:	20 5e       	subi	r18, 0xE0	; 224
     892:	3c 4f       	sbci	r19, 0xFC	; 252
     894:	f8 01       	movw	r30, r16
     896:	80 81       	ld	r24, Z
     898:	91 81       	ldd	r25, Z+1	; 0x01
     89a:	28 17       	cp	r18, r24
     89c:	39 07       	cpc	r19, r25
     89e:	28 f0       	brcs	.+10     	; 0x8aa <bmschip_init+0xea>
     8a0:	80 81       	ld	r24, Z
     8a2:	91 81       	ldd	r25, Z+1	; 0x01
     8a4:	48 17       	cp	r20, r24
     8a6:	59 07       	cpc	r21, r25
     8a8:	a8 f3       	brcs	.-22     	; 0x894 <bmschip_init+0xd4>
     8aa:	f8 01       	movw	r30, r16
     8ac:	80 81       	ld	r24, Z
     8ae:	91 81       	ldd	r25, Z+1	; 0x01
     8b0:	84 17       	cp	r24, r20
     8b2:	95 07       	cpc	r25, r21
     8b4:	50 f4       	brcc	.+20     	; 0x8ca <bmschip_init+0x10a>
     8b6:	80 81       	ld	r24, Z
     8b8:	91 81       	ldd	r25, Z+1	; 0x01
     8ba:	f7 01       	movw	r30, r14
     8bc:	60 81       	ld	r22, Z
     8be:	71 81       	ldd	r23, Z+1	; 0x01
     8c0:	86 0f       	add	r24, r22
     8c2:	97 1f       	adc	r25, r23
     8c4:	82 17       	cp	r24, r18
     8c6:	93 07       	cpc	r25, r19
     8c8:	28 f3       	brcs	.-54     	; 0x894 <bmschip_init+0xd4>
     8ca:	ba 94       	dec	r11
	bms.bms_Flags = 0x00;				//alle Flags erst einmal ausschalten
	
	bms.balancing.undervoltage = UNDERVOLT;	//erwuenschte Unterspannung übertragen
	bms.balancing.overvoltage = OVERVOLT;	//erwuenschte Ueberspannung übertragen
	bmschip_setOvUnVoltage(&bms.balancing.undervoltage, &bms.balancing.overvoltage); //Tatsauechlich moegliche Grenzen für den LTC6804 bestimmen
	for (i=0; i<slave_boards; i++)
     8cc:	b1 10       	cpse	r11, r1
     8ce:	ce cf       	rjmp	.-100    	; 0x86c <bmschip_init+0xac>
		SPI_CS_LTC6804_HIGH;
		spi.locked=0;
		wait_count = TCNT1;
		while ((((wait_count + 800) >= TCNT1)&&(wait_count<TCNT1)) || ((wait_count>TCNT1) && ((TCNT1 + ICR1)<(wait_count + 800))));
	}
	bmschip_writeConfig();
     8d0:	0e 94 b2 02 	call	0x564	; 0x564 <bmschip_writeConfig>
}
     8d4:	0f 90       	pop	r0
     8d6:	df 91       	pop	r29
     8d8:	cf 91       	pop	r28
     8da:	1f 91       	pop	r17
     8dc:	0f 91       	pop	r16
     8de:	ff 90       	pop	r15
     8e0:	ef 90       	pop	r14
     8e2:	df 90       	pop	r13
     8e4:	cf 90       	pop	r12
     8e6:	bf 90       	pop	r11
     8e8:	08 95       	ret

000008ea <bmschip_getVoltages>:
	spi.locked=0;
}

/******************Zellspannungen messen**********************************/
uint8_t bmschip_getVoltages(uint16_t *voltage)
{
     8ea:	2f 92       	push	r2
     8ec:	3f 92       	push	r3
     8ee:	4f 92       	push	r4
     8f0:	5f 92       	push	r5
     8f2:	6f 92       	push	r6
     8f4:	7f 92       	push	r7
     8f6:	8f 92       	push	r8
     8f8:	9f 92       	push	r9
     8fa:	af 92       	push	r10
     8fc:	bf 92       	push	r11
     8fe:	cf 92       	push	r12
     900:	df 92       	push	r13
     902:	ef 92       	push	r14
     904:	ff 92       	push	r15
     906:	0f 93       	push	r16
     908:	1f 93       	push	r17
     90a:	cf 93       	push	r28
     90c:	df 93       	push	r29
     90e:	cd b7       	in	r28, 0x3d	; 61
     910:	de b7       	in	r29, 0x3e	; 62
     912:	66 97       	sbiw	r28, 0x16	; 22
     914:	0f b6       	in	r0, 0x3f	; 63
     916:	f8 94       	cli
     918:	de bf       	out	0x3e, r29	; 62
     91a:	0f be       	out	0x3f, r0	; 63
     91c:	cd bf       	out	0x3d, r28	; 61
     91e:	08 2f       	mov	r16, r24
     920:	19 2f       	mov	r17, r25
	uint16_t wait_count;		//Wartezeit für ADC-Messung vom LTC6804
	uint32_t wait_milli;		//Wartezeit der Millisekunden
	
	
	// LTC ADC starten
	bmschip_startAdc();
     922:	0e 94 a8 01 	call	0x350	; 0x350 <bmschip_startAdc>
	
	// LTC ADC Wandlung abwarten (2500us), 1 Zählschritt entspricht 0,5us
	/**********************Wartezeit für Normalbetrieb ***********************/
	wait_count = TCNT1;
     926:	20 91 84 00 	lds	r18, 0x0084
     92a:	30 91 85 00 	lds	r19, 0x0085
	wait_milli = millisec_count;
     92e:	40 91 30 04 	lds	r20, 0x0430
     932:	50 91 31 04 	lds	r21, 0x0431
     936:	60 91 32 04 	lds	r22, 0x0432
     93a:	70 91 33 04 	lds	r23, 0x0433
	while((wait_milli+2) > millisec_count);
     93e:	4e 5f       	subi	r20, 0xFE	; 254
     940:	5f 4f       	sbci	r21, 0xFF	; 255
     942:	6f 4f       	sbci	r22, 0xFF	; 255
     944:	7f 4f       	sbci	r23, 0xFF	; 255
     946:	80 91 30 04 	lds	r24, 0x0430
     94a:	90 91 31 04 	lds	r25, 0x0431
     94e:	a0 91 32 04 	lds	r26, 0x0432
     952:	b0 91 33 04 	lds	r27, 0x0433
     956:	84 17       	cp	r24, r20
     958:	95 07       	cpc	r25, r21
     95a:	a6 07       	cpc	r26, r22
     95c:	b7 07       	cpc	r27, r23
     95e:	98 f3       	brcs	.-26     	; 0x946 <bmschip_getVoltages+0x5c>
	while(wait_count >= TCNT1);
     960:	e4 e8       	ldi	r30, 0x84	; 132
     962:	f0 e0       	ldi	r31, 0x00	; 0
     964:	80 81       	ld	r24, Z
     966:	91 81       	ldd	r25, Z+1	; 0x01
     968:	28 17       	cp	r18, r24
     96a:	39 07       	cpc	r19, r25
     96c:	d8 f7       	brcc	.-10     	; 0x964 <bmschip_getVoltages+0x7a>
	wait_count = TCNT1;
     96e:	80 91 84 00 	lds	r24, 0x0084
     972:	90 91 85 00 	lds	r25, 0x0085
	while ((((wait_count + 1000) >= TCNT1)&&(wait_count<TCNT1)) || ((wait_count>TCNT1) && ((TCNT1 + ICR1)<(wait_count + 1000))));
     976:	ac 01       	movw	r20, r24
     978:	48 51       	subi	r20, 0x18	; 24
     97a:	5c 4f       	sbci	r21, 0xFC	; 252
     97c:	e4 e8       	ldi	r30, 0x84	; 132
     97e:	f0 e0       	ldi	r31, 0x00	; 0
     980:	a6 e8       	ldi	r26, 0x86	; 134
     982:	b0 e0       	ldi	r27, 0x00	; 0
     984:	20 81       	ld	r18, Z
     986:	31 81       	ldd	r19, Z+1	; 0x01
     988:	42 17       	cp	r20, r18
     98a:	53 07       	cpc	r21, r19
     98c:	28 f0       	brcs	.+10     	; 0x998 <bmschip_getVoltages+0xae>
     98e:	20 81       	ld	r18, Z
     990:	31 81       	ldd	r19, Z+1	; 0x01
     992:	82 17       	cp	r24, r18
     994:	93 07       	cpc	r25, r19
     996:	b0 f3       	brcs	.-20     	; 0x984 <bmschip_getVoltages+0x9a>
     998:	20 81       	ld	r18, Z
     99a:	31 81       	ldd	r19, Z+1	; 0x01
     99c:	28 17       	cp	r18, r24
     99e:	39 07       	cpc	r19, r25
     9a0:	50 f4       	brcc	.+20     	; 0x9b6 <bmschip_getVoltages+0xcc>
     9a2:	20 81       	ld	r18, Z
     9a4:	31 81       	ldd	r19, Z+1	; 0x01
     9a6:	6d 91       	ld	r22, X+
     9a8:	7c 91       	ld	r23, X
     9aa:	11 97       	sbiw	r26, 0x01	; 1
     9ac:	26 0f       	add	r18, r22
     9ae:	37 1f       	adc	r19, r23
     9b0:	24 17       	cp	r18, r20
     9b2:	35 07       	cpc	r19, r21
     9b4:	38 f3       	brcs	.-50     	; 0x984 <bmschip_getVoltages+0x9a>
     9b6:	a0 2e       	mov	r10, r16
     9b8:	b1 2e       	mov	r11, r17
		while(!(bmschip_spi_rw(cmd, 4))); //Command schicken
		spi.locked = 0;
		
		for (i=0; i<slave_boards; i++)
		{
			while(!(bmschip_spi_rw(&cmd[4], 8)));
     9ba:	c1 2c       	mov	r12, r1
     9bc:	d1 2c       	mov	r13, r1
     9be:	ce 01       	movw	r24, r28
     9c0:	05 96       	adiw	r24, 0x05	; 5
     9c2:	9e 8b       	std	Y+22, r25	; 0x16
     9c4:	8d 8b       	std	Y+21, r24	; 0x15
     9c6:	7e 01       	movw	r14, r28
     9c8:	9d e0       	ldi	r25, 0x0D	; 13
     9ca:	e9 0e       	add	r14, r25
     9cc:	f1 1c       	adc	r15, r1
		{
			cmd[i] = 0x00;
		}
		// Befehl und PEC schreiben
		while(!(bmschip_spi_rw(cmd, 4))); //Command schicken
		spi.locked = 0;
     9ce:	0f 2e       	mov	r0, r31
     9d0:	ff e6       	ldi	r31, 0x6F	; 111
     9d2:	6f 2e       	mov	r6, r31
     9d4:	f4 e0       	ldi	r31, 0x04	; 4
     9d6:	7f 2e       	mov	r7, r31
     9d8:	f0 2d       	mov	r31, r0
		
		for (i=0; i<slave_boards; i++)
		{
			while(!(bmschip_spi_rw(&cmd[4], 8)));
     9da:	4d 88       	ldd	r4, Y+21	; 0x15
     9dc:	5e 88       	ldd	r5, Y+22	; 0x16
     9de:	2e 2c       	mov	r2, r14
     9e0:	3f 2c       	mov	r3, r15
     9e2:	69 c0       	rjmp	.+210    	; 0xab6 <bmschip_getVoltages+0x1cc>
		{
			cmd[i] = ltc6804.adcv[group][i];
		}
		for(i = 4; i < 12; i++)
		{
			cmd[i] = 0x00;
     9e4:	11 92       	st	Z+, r1
	{
		for(i = 0; i < 4; i++)
		{
			cmd[i] = ltc6804.adcv[group][i];
		}
		for(i = 4; i < 12; i++)
     9e6:	ee 15       	cp	r30, r14
     9e8:	ff 05       	cpc	r31, r15
     9ea:	e1 f7       	brne	.-8      	; 0x9e4 <bmschip_getVoltages+0xfa>
		{
			cmd[i] = 0x00;
		}
		// Befehl und PEC schreiben
		while(!(bmschip_spi_rw(cmd, 4))); //Command schicken
     9ec:	64 e0       	ldi	r22, 0x04	; 4
     9ee:	ce 01       	movw	r24, r28
     9f0:	01 96       	adiw	r24, 0x01	; 1
     9f2:	0e 94 72 01 	call	0x2e4	; 0x2e4 <bmschip_spi_rw>
     9f6:	88 23       	and	r24, r24
     9f8:	c9 f3       	breq	.-14     	; 0x9ec <bmschip_getVoltages+0x102>
		spi.locked = 0;
     9fa:	f3 01       	movw	r30, r6
     9fc:	12 a2       	std	Z+34, r1	; 0x22
     9fe:	45 01       	movw	r8, r10
     a00:	f0 e3       	ldi	r31, 0x30	; 48
     a02:	8f 0e       	add	r8, r31
     a04:	91 1c       	adc	r9, r1
     a06:	85 01       	movw	r16, r10
		
		for (i=0; i<slave_boards; i++)
		{
			while(!(bmschip_spi_rw(&cmd[4], 8)));
     a08:	68 e0       	ldi	r22, 0x08	; 8
     a0a:	84 2d       	mov	r24, r4
     a0c:	95 2d       	mov	r25, r5
     a0e:	0e 94 72 01 	call	0x2e4	; 0x2e4 <bmschip_spi_rw>
     a12:	88 23       	and	r24, r24
     a14:	c9 f3       	breq	.-14     	; 0xa08 <bmschip_getVoltages+0x11e>
     a16:	e2 2d       	mov	r30, r2
     a18:	f3 2d       	mov	r31, r3
     a1a:	80 e0       	ldi	r24, 0x00	; 0
     a1c:	90 e0       	ldi	r25, 0x00	; 0
			for (k=0; k<8; k++)
			{
				receive[k] = spi.rx_buffer.b[k];	//empfangene Werte übernehmen
     a1e:	dc 01       	movw	r26, r24
     a20:	a1 59       	subi	r26, 0x91	; 145
     a22:	bb 4f       	sbci	r27, 0xFB	; 251
     a24:	50 96       	adiw	r26, 0x10	; 16
     a26:	2c 91       	ld	r18, X
     a28:	21 93       	st	Z+, r18
     a2a:	01 96       	adiw	r24, 0x01	; 1
		spi.locked = 0;
		
		for (i=0; i<slave_boards; i++)
		{
			while(!(bmschip_spi_rw(&cmd[4], 8)));
			for (k=0; k<8; k++)
     a2c:	88 30       	cpi	r24, 0x08	; 8
     a2e:	91 05       	cpc	r25, r1
     a30:	b1 f7       	brne	.-20     	; 0xa1e <bmschip_getVoltages+0x134>
			{
				receive[k] = spi.rx_buffer.b[k];	//empfangene Werte übernehmen
			}
			// Emfangene Daten durch PEC-Berechnung pruefen
			pec = Pec15(&(receive[0]), 6);
     a32:	66 e0       	ldi	r22, 0x06	; 6
     a34:	82 2d       	mov	r24, r2
     a36:	93 2d       	mov	r25, r3
     a38:	0e 94 18 02 	call	0x430	; 0x430 <Pec15>
			if(pec == ((((uint16_t)receive[6]) << 8) | receive[7]))	//Stimmt der PEC?
     a3c:	2b 89       	ldd	r18, Y+19	; 0x13
     a3e:	30 e0       	ldi	r19, 0x00	; 0
     a40:	32 2f       	mov	r19, r18
     a42:	22 27       	eor	r18, r18
     a44:	4c 89       	ldd	r20, Y+20	; 0x14
     a46:	24 2b       	or	r18, r20
     a48:	28 17       	cp	r18, r24
     a4a:	39 07       	cpc	r19, r25
     a4c:	11 f5       	brne	.+68     	; 0xa92 <bmschip_getVoltages+0x1a8>
			{
				//jeweilige Zellspannung in die entsprechende Nummer im Array übertragen (Standardmäßig: bms.volt.val[])
				voltage[group * 3 + (i*12)] = (((uint16_t)receive[1]) << 8) | receive[0];		
     a4e:	8e 85       	ldd	r24, Y+14	; 0x0e
     a50:	90 e0       	ldi	r25, 0x00	; 0
     a52:	98 2f       	mov	r25, r24
     a54:	88 27       	eor	r24, r24
     a56:	2d 85       	ldd	r18, Y+13	; 0x0d
     a58:	82 2b       	or	r24, r18
     a5a:	f8 01       	movw	r30, r16
     a5c:	91 83       	std	Z+1, r25	; 0x01
     a5e:	80 83       	st	Z, r24
				voltage[group * 3 + (i*12) + 1] = (((uint16_t)receive[3]) << 8) | receive[2];
     a60:	88 89       	ldd	r24, Y+16	; 0x10
     a62:	90 e0       	ldi	r25, 0x00	; 0
     a64:	98 2f       	mov	r25, r24
     a66:	88 27       	eor	r24, r24
     a68:	2f 85       	ldd	r18, Y+15	; 0x0f
     a6a:	82 2b       	or	r24, r18
     a6c:	93 83       	std	Z+3, r25	; 0x03
     a6e:	82 83       	std	Z+2, r24	; 0x02
				voltage[group * 3 + (i*12) + 2] = (((uint16_t)receive[5]) << 8) | receive[4];
     a70:	8a 89       	ldd	r24, Y+18	; 0x12
     a72:	90 e0       	ldi	r25, 0x00	; 0
     a74:	98 2f       	mov	r25, r24
     a76:	88 27       	eor	r24, r24
     a78:	29 89       	ldd	r18, Y+17	; 0x11
     a7a:	82 2b       	or	r24, r18
     a7c:	95 83       	std	Z+5, r25	; 0x05
     a7e:	84 83       	std	Z+4, r24	; 0x04
			{
				SPI_CS_LTC6804_HIGH;
				spi.locked = 0;
				return 1;
			}
			spi.locked = 0;
     a80:	f3 01       	movw	r30, r6
     a82:	12 a2       	std	Z+34, r1	; 0x22
     a84:	08 5e       	subi	r16, 0xE8	; 232
     a86:	1f 4f       	sbci	r17, 0xFF	; 255
		}
		// Befehl und PEC schreiben
		while(!(bmschip_spi_rw(cmd, 4))); //Command schicken
		spi.locked = 0;
		
		for (i=0; i<slave_boards; i++)
     a88:	80 16       	cp	r8, r16
     a8a:	91 06       	cpc	r9, r17
     a8c:	09 f0       	breq	.+2      	; 0xa90 <bmschip_getVoltages+0x1a6>
     a8e:	bc cf       	rjmp	.-136    	; 0xa08 <bmschip_getVoltages+0x11e>
     a90:	05 c0       	rjmp	.+10     	; 0xa9c <bmschip_getVoltages+0x1b2>
				voltage[group * 3 + (i*12) + 1] = (((uint16_t)receive[3]) << 8) | receive[2];
				voltage[group * 3 + (i*12) + 2] = (((uint16_t)receive[5]) << 8) | receive[4];
			}
			else
			{
				SPI_CS_LTC6804_HIGH;
     a92:	41 9a       	sbi	0x08, 1	; 8
				spi.locked = 0;
     a94:	10 92 91 04 	sts	0x0491, r1
				return 1;
     a98:	81 e0       	ldi	r24, 0x01	; 1
     a9a:	27 c0       	rjmp	.+78     	; 0xaea <bmschip_getVoltages+0x200>
			}
			spi.locked = 0;
		}
		SPI_CS_LTC6804_HIGH;
     a9c:	41 9a       	sbi	0x08, 1	; 8
		spi.locked = 0;
     a9e:	f3 01       	movw	r30, r6
     aa0:	12 a2       	std	Z+34, r1	; 0x22
     aa2:	ff ef       	ldi	r31, 0xFF	; 255
     aa4:	cf 1a       	sub	r12, r31
     aa6:	df 0a       	sbc	r13, r31
     aa8:	86 e0       	ldi	r24, 0x06	; 6
     aaa:	a8 0e       	add	r10, r24
     aac:	b1 1c       	adc	r11, r1
	wait_count = TCNT1;
	while ((((wait_count + 1000) >= TCNT1)&&(wait_count<TCNT1)) || ((wait_count>TCNT1) && ((TCNT1 + ICR1)<(wait_count + 1000))));
	//*************************************************************************
	
	// LTC Spannungen auslesen
	for(group = 0; group < 4; group++)		//Alle Register Groups durchgehen
     aae:	94 e0       	ldi	r25, 0x04	; 4
     ab0:	c9 16       	cp	r12, r25
     ab2:	d1 04       	cpc	r13, r1
     ab4:	c9 f0       	breq	.+50     	; 0xae8 <bmschip_getVoltages+0x1fe>
	{
		for(i = 0; i < 4; i++)
		{
			cmd[i] = ltc6804.adcv[group][i];
     ab6:	f6 01       	movw	r30, r12
     ab8:	ee 0f       	add	r30, r30
     aba:	ff 1f       	adc	r31, r31
     abc:	ee 0f       	add	r30, r30
     abe:	ff 1f       	adc	r31, r31
     ac0:	e8 5a       	subi	r30, 0xA8	; 168
     ac2:	fb 4f       	sbci	r31, 0xFB	; 251
     ac4:	86 81       	ldd	r24, Z+6	; 0x06
     ac6:	89 83       	std	Y+1, r24	; 0x01
     ac8:	87 81       	ldd	r24, Z+7	; 0x07
     aca:	8a 83       	std	Y+2, r24	; 0x02
     acc:	d6 01       	movw	r26, r12
     ace:	aa 0f       	add	r26, r26
     ad0:	bb 1f       	adc	r27, r27
     ad2:	aa 0f       	add	r26, r26
     ad4:	bb 1f       	adc	r27, r27
     ad6:	a0 5a       	subi	r26, 0xA0	; 160
     ad8:	bb 4f       	sbci	r27, 0xFB	; 251
     ada:	8c 91       	ld	r24, X
     adc:	8b 83       	std	Y+3, r24	; 0x03
     ade:	81 85       	ldd	r24, Z+9	; 0x09
     ae0:	8c 83       	std	Y+4, r24	; 0x04
     ae2:	fe 01       	movw	r30, r28
     ae4:	35 96       	adiw	r30, 0x05	; 5
     ae6:	7e cf       	rjmp	.-260    	; 0x9e4 <bmschip_getVoltages+0xfa>
		}
		SPI_CS_LTC6804_HIGH;
		spi.locked = 0;
	}
	
	return 0;
     ae8:	80 e0       	ldi	r24, 0x00	; 0
}
     aea:	66 96       	adiw	r28, 0x16	; 22
     aec:	0f b6       	in	r0, 0x3f	; 63
     aee:	f8 94       	cli
     af0:	de bf       	out	0x3e, r29	; 62
     af2:	0f be       	out	0x3f, r0	; 63
     af4:	cd bf       	out	0x3d, r28	; 61
     af6:	df 91       	pop	r29
     af8:	cf 91       	pop	r28
     afa:	1f 91       	pop	r17
     afc:	0f 91       	pop	r16
     afe:	ff 90       	pop	r15
     b00:	ef 90       	pop	r14
     b02:	df 90       	pop	r13
     b04:	cf 90       	pop	r12
     b06:	bf 90       	pop	r11
     b08:	af 90       	pop	r10
     b0a:	9f 90       	pop	r9
     b0c:	8f 90       	pop	r8
     b0e:	7f 90       	pop	r7
     b10:	6f 90       	pop	r6
     b12:	5f 90       	pop	r5
     b14:	4f 90       	pop	r4
     b16:	3f 90       	pop	r3
     b18:	2f 90       	pop	r2
     b1a:	08 95       	ret

00000b1c <bmschip_evaluate>:
}

//*******Auswertung der Zellspannungen********
void bmschip_evaluate(uint16_t * pvolatages, uint16_t * pmaxVolt, uint8_t * pmaxNum, uint16_t * pminVolt, 
		uint8_t * pminNum, uint16_t * pavgVolt, uint8_t * numofcells)
{
     b1c:	2f 92       	push	r2
     b1e:	3f 92       	push	r3
     b20:	4f 92       	push	r4
     b22:	5f 92       	push	r5
     b24:	7f 92       	push	r7
     b26:	8f 92       	push	r8
     b28:	9f 92       	push	r9
     b2a:	af 92       	push	r10
     b2c:	bf 92       	push	r11
     b2e:	cf 92       	push	r12
     b30:	df 92       	push	r13
     b32:	ef 92       	push	r14
     b34:	ff 92       	push	r15
     b36:	0f 93       	push	r16
     b38:	1f 93       	push	r17
     b3a:	cf 93       	push	r28
     b3c:	df 93       	push	r29
     b3e:	00 d0       	rcall	.+0      	; 0xb40 <bmschip_evaluate+0x24>
     b40:	00 d0       	rcall	.+0      	; 0xb42 <bmschip_evaluate+0x26>
     b42:	00 d0       	rcall	.+0      	; 0xb44 <bmschip_evaluate+0x28>
     b44:	cd b7       	in	r28, 0x3d	; 61
     b46:	de b7       	in	r29, 0x3e	; 62
     b48:	3a 83       	std	Y+2, r19	; 0x02
     b4a:	29 83       	std	Y+1, r18	; 0x01
     b4c:	27 01       	movw	r4, r14
     b4e:	16 01       	movw	r2, r12
     b50:	7c 01       	movw	r14, r24
     b52:	20 e0       	ldi	r18, 0x00	; 0
	uint16_t minVolt = 50000, maxVolt = 0;
	uint32_t avgVolt = 0;
	uint8_t minNum = 0, maxNum = 0, i, k, actNr = 0;
     b54:	71 2c       	mov	r7, r1
     b56:	c1 2c       	mov	r12, r1
//*******Auswertung der Zellspannungen********
void bmschip_evaluate(uint16_t * pvolatages, uint16_t * pmaxVolt, uint8_t * pmaxNum, uint16_t * pminVolt, 
		uint8_t * pminNum, uint16_t * pavgVolt, uint8_t * numofcells)
{
	uint16_t minVolt = 50000, maxVolt = 0;
	uint32_t avgVolt = 0;
     b58:	81 2c       	mov	r8, r1
     b5a:	91 2c       	mov	r9, r1
     b5c:	54 01       	movw	r10, r8

//*******Auswertung der Zellspannungen********
void bmschip_evaluate(uint16_t * pvolatages, uint16_t * pmaxVolt, uint8_t * pmaxNum, uint16_t * pminVolt, 
		uint8_t * pminNum, uint16_t * pavgVolt, uint8_t * numofcells)
{
	uint16_t minVolt = 50000, maxVolt = 0;
     b5e:	1e 82       	std	Y+6, r1	; 0x06
     b60:	1d 82       	std	Y+5, r1	; 0x05
     b62:	a0 e5       	ldi	r26, 0x50	; 80
     b64:	b3 ec       	ldi	r27, 0xC3	; 195
     b66:	bc 83       	std	Y+4, r27	; 0x04
     b68:	ab 83       	std	Y+3, r26	; 0x03
	for(k=0; k<slave_boards;k++)
	{
		
		for(i=0; i<cells_per_board[slave_boards-1]; i++)
		{
			avgVolt += pvolatages[(k*12)+i];
     b6a:	d7 01       	movw	r26, r14
     b6c:	ed 91       	ld	r30, X+
     b6e:	fd 91       	ld	r31, X+
     b70:	7d 01       	movw	r14, r26
     b72:	8e 0e       	add	r8, r30
     b74:	9f 1e       	adc	r9, r31
     b76:	a1 1c       	adc	r10, r1
     b78:	b1 1c       	adc	r11, r1
			if(pvolatages[(k*12)+i] < minVolt)		//Minimalspannung
     b7a:	ab 81       	ldd	r26, Y+3	; 0x03
     b7c:	bc 81       	ldd	r27, Y+4	; 0x04
     b7e:	ea 17       	cp	r30, r26
     b80:	fb 07       	cpc	r31, r27
     b82:	18 f4       	brcc	.+6      	; 0xb8a <bmschip_evaluate+0x6e>
			{
				minVolt = pvolatages[(k*12)+i];
				minNum = actNr + i;			
     b84:	c2 2e       	mov	r12, r18
	for(k=0; k<slave_boards;k++)
	{
		
		for(i=0; i<cells_per_board[slave_boards-1]; i++)
		{
			avgVolt += pvolatages[(k*12)+i];
     b86:	fc 83       	std	Y+4, r31	; 0x04
     b88:	eb 83       	std	Y+3, r30	; 0x03
			if(pvolatages[(k*12)+i] < minVolt)		//Minimalspannung
			{
				minVolt = pvolatages[(k*12)+i];
				minNum = actNr + i;			
			}
			if(pvolatages[(k*12)+i] > maxVolt)		//Maximalspannung
     b8a:	ad 81       	ldd	r26, Y+5	; 0x05
     b8c:	be 81       	ldd	r27, Y+6	; 0x06
     b8e:	ae 17       	cp	r26, r30
     b90:	bf 07       	cpc	r27, r31
     b92:	18 f4       	brcc	.+6      	; 0xb9a <bmschip_evaluate+0x7e>
			{
				maxVolt = pvolatages[(k*12)+i];
				maxNum = actNr + i;
     b94:	72 2e       	mov	r7, r18
	for(k=0; k<slave_boards;k++)
	{
		
		for(i=0; i<cells_per_board[slave_boards-1]; i++)
		{
			avgVolt += pvolatages[(k*12)+i];
     b96:	fe 83       	std	Y+6, r31	; 0x06
     b98:	ed 83       	std	Y+5, r30	; 0x05
	
	// Bestimmung Min, Max, Avg
	for(k=0; k<slave_boards;k++)
	{
		
		for(i=0; i<cells_per_board[slave_boards-1]; i++)
     b9a:	2f 5f       	subi	r18, 0xFF	; 255
     b9c:	28 30       	cpi	r18, 0x08	; 8
     b9e:	29 f7       	brne	.-54     	; 0xb6a <bmschip_evaluate+0x4e>
     ba0:	48 96       	adiw	r24, 0x18	; 24
		{
			avgVolt += pvolatages[(k*12)+i];
     ba2:	dc 01       	movw	r26, r24
     ba4:	ed 91       	ld	r30, X+
     ba6:	fd 91       	ld	r31, X+
     ba8:	cd 01       	movw	r24, r26
     baa:	8e 0e       	add	r8, r30
     bac:	9f 1e       	adc	r9, r31
     bae:	a1 1c       	adc	r10, r1
     bb0:	b1 1c       	adc	r11, r1
			if(pvolatages[(k*12)+i] < minVolt)		//Minimalspannung
     bb2:	ab 81       	ldd	r26, Y+3	; 0x03
     bb4:	bc 81       	ldd	r27, Y+4	; 0x04
     bb6:	ea 17       	cp	r30, r26
     bb8:	fb 07       	cpc	r31, r27
     bba:	18 f4       	brcc	.+6      	; 0xbc2 <bmschip_evaluate+0xa6>
			{
				minVolt = pvolatages[(k*12)+i];
				minNum = actNr + i;			
     bbc:	c2 2e       	mov	r12, r18
	for(k=0; k<slave_boards;k++)
	{
		
		for(i=0; i<cells_per_board[slave_boards-1]; i++)
		{
			avgVolt += pvolatages[(k*12)+i];
     bbe:	fc 83       	std	Y+4, r31	; 0x04
     bc0:	eb 83       	std	Y+3, r30	; 0x03
			if(pvolatages[(k*12)+i] < minVolt)		//Minimalspannung
			{
				minVolt = pvolatages[(k*12)+i];
				minNum = actNr + i;			
			}
			if(pvolatages[(k*12)+i] > maxVolt)		//Maximalspannung
     bc2:	ad 81       	ldd	r26, Y+5	; 0x05
     bc4:	be 81       	ldd	r27, Y+6	; 0x06
     bc6:	ae 17       	cp	r26, r30
     bc8:	bf 07       	cpc	r27, r31
     bca:	18 f4       	brcc	.+6      	; 0xbd2 <bmschip_evaluate+0xb6>
			{
				maxVolt = pvolatages[(k*12)+i];
				maxNum = actNr + i;
     bcc:	72 2e       	mov	r7, r18
	for(k=0; k<slave_boards;k++)
	{
		
		for(i=0; i<cells_per_board[slave_boards-1]; i++)
		{
			avgVolt += pvolatages[(k*12)+i];
     bce:	fe 83       	std	Y+6, r31	; 0x06
     bd0:	ed 83       	std	Y+5, r30	; 0x05
     bd2:	2f 5f       	subi	r18, 0xFF	; 255
	
	// Bestimmung Min, Max, Avg
	for(k=0; k<slave_boards;k++)
	{
		
		for(i=0; i<cells_per_board[slave_boards-1]; i++)
     bd4:	20 31       	cpi	r18, 0x10	; 16
     bd6:	29 f7       	brne	.-54     	; 0xba2 <bmschip_evaluate+0x86>
	}
	
	avgVolt /= actNr;								//Mittelwertbildung
	
	// Rückgabe Min, Max, Avg
	*pmaxVolt = maxVolt;
     bd8:	8d 81       	ldd	r24, Y+5	; 0x05
     bda:	9e 81       	ldd	r25, Y+6	; 0x06
     bdc:	fb 01       	movw	r30, r22
     bde:	91 83       	std	Z+1, r25	; 0x01
     be0:	80 83       	st	Z, r24
	*pmaxNum = maxNum;
     be2:	da 01       	movw	r26, r20
     be4:	7c 92       	st	X, r7
	*pminVolt = minVolt;
     be6:	8b 81       	ldd	r24, Y+3	; 0x03
     be8:	9c 81       	ldd	r25, Y+4	; 0x04
     bea:	e9 81       	ldd	r30, Y+1	; 0x01
     bec:	fa 81       	ldd	r31, Y+2	; 0x02
     bee:	91 83       	std	Z+1, r25	; 0x01
     bf0:	80 83       	st	Z, r24
	*pminNum = minNum;
     bf2:	d8 01       	movw	r26, r16
     bf4:	cc 92       	st	X, r12
			}
		}
		actNr += cells_per_board[slave_boards-1];	//Merken, wie viele Zellen man hat
	}
	
	avgVolt /= actNr;								//Mittelwertbildung
     bf6:	68 94       	set
     bf8:	13 f8       	bld	r1, 3
     bfa:	b6 94       	lsr	r11
     bfc:	a7 94       	ror	r10
     bfe:	97 94       	ror	r9
     c00:	87 94       	ror	r8
     c02:	16 94       	lsr	r1
     c04:	d1 f7       	brne	.-12     	; 0xbfa <bmschip_evaluate+0xde>
	// Rückgabe Min, Max, Avg
	*pmaxVolt = maxVolt;
	*pmaxNum = maxNum;
	*pminVolt = minVolt;
	*pminNum = minNum;
	*pavgVolt = (uint16_t)avgVolt;
     c06:	f2 01       	movw	r30, r4
     c08:	91 82       	std	Z+1, r9	; 0x01
     c0a:	80 82       	st	Z, r8
	*numofcells = actNr;
     c0c:	80 e1       	ldi	r24, 0x10	; 16
     c0e:	d1 01       	movw	r26, r2
     c10:	8c 93       	st	X, r24
}
     c12:	26 96       	adiw	r28, 0x06	; 6
     c14:	0f b6       	in	r0, 0x3f	; 63
     c16:	f8 94       	cli
     c18:	de bf       	out	0x3e, r29	; 62
     c1a:	0f be       	out	0x3f, r0	; 63
     c1c:	cd bf       	out	0x3d, r28	; 61
     c1e:	df 91       	pop	r29
     c20:	cf 91       	pop	r28
     c22:	1f 91       	pop	r17
     c24:	0f 91       	pop	r16
     c26:	ff 90       	pop	r15
     c28:	ef 90       	pop	r14
     c2a:	df 90       	pop	r13
     c2c:	cf 90       	pop	r12
     c2e:	bf 90       	pop	r11
     c30:	af 90       	pop	r10
     c32:	9f 90       	pop	r9
     c34:	8f 90       	pop	r8
     c36:	7f 90       	pop	r7
     c38:	5f 90       	pop	r5
     c3a:	4f 90       	pop	r4
     c3c:	3f 90       	pop	r3
     c3e:	2f 90       	pop	r2
     c40:	08 95       	ret

00000c42 <bmschip_checkBalancing>:
voltDiff: Different, ab welcher gebalanced werden muss
undervoltage: Unterspannungsgrenze
*****************************************/
void bmschip_checkBalancing(uint16_t * pvoltages, uint16_t minVolt, 
		 uint16_t undervoltage, uint16_t * pcells)
{
     c42:	6f 92       	push	r6
     c44:	7f 92       	push	r7
     c46:	9f 92       	push	r9
     c48:	af 92       	push	r10
     c4a:	bf 92       	push	r11
     c4c:	cf 92       	push	r12
     c4e:	df 92       	push	r13
     c50:	ef 92       	push	r14
     c52:	ff 92       	push	r15
     c54:	0f 93       	push	r16
     c56:	1f 93       	push	r17
     c58:	cf 93       	push	r28
     c5a:	df 93       	push	r29
     c5c:	7c 01       	movw	r14, r24
     c5e:	3c 01       	movw	r6, r24
     c60:	e0 e3       	ldi	r30, 0x30	; 48
     c62:	6e 0e       	add	r6, r30
     c64:	71 1c       	adc	r7, r1
     c66:	91 2c       	mov	r9, r1
     c68:	a1 2c       	mov	r10, r1
	for(k=0; k<slave_boards; k++)
	{
		cells = 0x0000;
		for(i=0; i<cells_per_board[slave_boards-1]; i++)
		{
			if((pvoltages[(k*12)+i] >= (minVolt + BAL_DIFFERENCE)) && (pvoltages[(k*12)+i] > (undervoltage + BAL_DIFFERENCE)) && (pvoltages[(k*12)+i] > BALANCING_LIMIT))
     c6a:	6c 59       	subi	r22, 0x9C	; 156
     c6c:	7f 4f       	sbci	r23, 0xFF	; 255
     c6e:	8a 01       	movw	r16, r20
     c70:	0c 59       	subi	r16, 0x9C	; 156
     c72:	1f 4f       	sbci	r17, 0xFF	; 255
			{
				cells |= (1 << i); // cells = cells | (1 << i); // Schifte "1" um i Binärstellen nach links (i ^= Bitstelle)
     c74:	cc 24       	eor	r12, r12
     c76:	c3 94       	inc	r12
     c78:	d1 2c       	mov	r13, r1
     c7a:	22 c0       	rjmp	.+68     	; 0xcc0 <bmschip_checkBalancing+0x7e>
	for(k=0; k<slave_boards; k++)
	{
		cells = 0x0000;
		for(i=0; i<cells_per_board[slave_boards-1]; i++)
		{
			if((pvoltages[(k*12)+i] >= (minVolt + BAL_DIFFERENCE)) && (pvoltages[(k*12)+i] > (undervoltage + BAL_DIFFERENCE)) && (pvoltages[(k*12)+i] > BALANCING_LIMIT))
     c7c:	a9 91       	ld	r26, Y+
     c7e:	b9 91       	ld	r27, Y+
     c80:	a6 17       	cp	r26, r22
     c82:	b7 07       	cpc	r27, r23
     c84:	78 f0       	brcs	.+30     	; 0xca4 <bmschip_checkBalancing+0x62>
     c86:	0a 17       	cp	r16, r26
     c88:	1b 07       	cpc	r17, r27
     c8a:	60 f4       	brcc	.+24     	; 0xca4 <bmschip_checkBalancing+0x62>
     c8c:	a9 35       	cpi	r26, 0x59	; 89
     c8e:	b8 49       	sbci	r27, 0x98	; 152
     c90:	48 f0       	brcs	.+18     	; 0xca4 <bmschip_checkBalancing+0x62>
			{
				cells |= (1 << i); // cells = cells | (1 << i); // Schifte "1" um i Binärstellen nach links (i ^= Bitstelle)
     c92:	d6 01       	movw	r26, r12
     c94:	0e 2e       	mov	r0, r30
     c96:	02 c0       	rjmp	.+4      	; 0xc9c <bmschip_checkBalancing+0x5a>
     c98:	aa 0f       	add	r26, r26
     c9a:	bb 1f       	adc	r27, r27
     c9c:	0a 94       	dec	r0
     c9e:	e2 f7       	brpl	.-8      	; 0xc98 <bmschip_checkBalancing+0x56>
     ca0:	4a 2b       	or	r20, r26
     ca2:	5b 2b       	or	r21, r27
     ca4:	31 96       	adiw	r30, 0x01	; 1
	
	
	for(k=0; k<slave_boards; k++)
	{
		cells = 0x0000;
		for(i=0; i<cells_per_board[slave_boards-1]; i++)
     ca6:	e8 30       	cpi	r30, 0x08	; 8
     ca8:	f1 05       	cpc	r31, r1
     caa:	41 f7       	brne	.-48     	; 0xc7c <bmschip_checkBalancing+0x3a>
			{
				cells |= (1 << i); // cells = cells | (1 << i); // Schifte "1" um i Binärstellen nach links (i ^= Bitstelle)
				
			}
		}
		pcells[k] = cells;
     cac:	f9 01       	movw	r30, r18
     cae:	41 93       	st	Z+, r20
     cb0:	51 93       	st	Z+, r21
     cb2:	9f 01       	movw	r18, r30
     cb4:	f8 e1       	ldi	r31, 0x18	; 24
     cb6:	ef 0e       	add	r14, r31
     cb8:	f1 1c       	adc	r15, r1
{
	uint16_t cells;
	uint8_t i, k;
	
	
	for(k=0; k<slave_boards; k++)
     cba:	e6 14       	cp	r14, r6
     cbc:	f7 04       	cpc	r15, r7
     cbe:	31 f0       	breq	.+12     	; 0xccc <bmschip_checkBalancing+0x8a>
voltDiff: Different, ab welcher gebalanced werden muss
undervoltage: Unterspannungsgrenze
*****************************************/
void bmschip_checkBalancing(uint16_t * pvoltages, uint16_t minVolt, 
		 uint16_t undervoltage, uint16_t * pcells)
{
     cc0:	e7 01       	movw	r28, r14
     cc2:	e9 2d       	mov	r30, r9
     cc4:	fa 2d       	mov	r31, r10
     cc6:	49 2d       	mov	r20, r9
     cc8:	5a 2d       	mov	r21, r10
     cca:	d8 cf       	rjmp	.-80     	; 0xc7c <bmschip_checkBalancing+0x3a>
			}
		}
		pcells[k] = cells;
	}
	
}
     ccc:	df 91       	pop	r29
     cce:	cf 91       	pop	r28
     cd0:	1f 91       	pop	r17
     cd2:	0f 91       	pop	r16
     cd4:	ff 90       	pop	r15
     cd6:	ef 90       	pop	r14
     cd8:	df 90       	pop	r13
     cda:	cf 90       	pop	r12
     cdc:	bf 90       	pop	r11
     cde:	af 90       	pop	r10
     ce0:	9f 90       	pop	r9
     ce2:	7f 90       	pop	r7
     ce4:	6f 90       	pop	r6
     ce6:	08 95       	ret

00000ce8 <bmschip_startGPIO>:
// **************************************************************************

//*************Temperaturmessung*********************************************
void bmschip_startGPIO(uint8_t pin)
{
     ce8:	af 92       	push	r10
     cea:	bf 92       	push	r11
     cec:	cf 92       	push	r12
     cee:	df 92       	push	r13
     cf0:	ef 92       	push	r14
     cf2:	ff 92       	push	r15
     cf4:	0f 93       	push	r16
     cf6:	1f 93       	push	r17
     cf8:	cf 93       	push	r28
     cfa:	df 93       	push	r29
     cfc:	00 d0       	rcall	.+0      	; 0xcfe <bmschip_startGPIO+0x16>
     cfe:	00 d0       	rcall	.+0      	; 0xd00 <bmschip_startGPIO+0x18>
     d00:	cd b7       	in	r28, 0x3d	; 61
     d02:	de b7       	in	r29, 0x3e	; 62
     d04:	a8 2e       	mov	r10, r24
	uint8_t i;
	uint8_t cmd[4];
	cmd[0]=0x00;
     d06:	19 82       	std	Y+1, r1	; 0x01
     d08:	68 94       	set
     d0a:	bb 24       	eor	r11, r11
     d0c:	b1 f8       	bld	r11, 1
	
	for (i=0; i<slave_boards; i++)
	{
		while(!(bmschip_spi_rw(cmd, 1)));		//Dummybyte, um den IsoSPI aufzuwecken
		SPI_CS_LTC6804_HIGH;
		spi.locked = 0;
     d0e:	0f 2e       	mov	r0, r31
     d10:	ff e6       	ldi	r31, 0x6F	; 111
     d12:	cf 2e       	mov	r12, r31
     d14:	f4 e0       	ldi	r31, 0x04	; 4
     d16:	df 2e       	mov	r13, r31
     d18:	f0 2d       	mov	r31, r0
		wait_count = TCNT1;
     d1a:	04 e8       	ldi	r16, 0x84	; 132
     d1c:	10 e0       	ldi	r17, 0x00	; 0
		while ((((wait_count + 20) >= TCNT1)&&(wait_count<TCNT1)) || ((wait_count>TCNT1) && ((TCNT1 + ICR1)<(wait_count + 20))));
     d1e:	0f 2e       	mov	r0, r31
     d20:	f6 e8       	ldi	r31, 0x86	; 134
     d22:	ef 2e       	mov	r14, r31
     d24:	f1 2c       	mov	r15, r1
     d26:	f0 2d       	mov	r31, r0
	cmd[0]=0x00;
	uint16_t pec;
	
	for (i=0; i<slave_boards; i++)
	{
		while(!(bmschip_spi_rw(cmd, 1)));		//Dummybyte, um den IsoSPI aufzuwecken
     d28:	61 e0       	ldi	r22, 0x01	; 1
     d2a:	ce 01       	movw	r24, r28
     d2c:	01 96       	adiw	r24, 0x01	; 1
     d2e:	0e 94 72 01 	call	0x2e4	; 0x2e4 <bmschip_spi_rw>
     d32:	88 23       	and	r24, r24
     d34:	c9 f3       	breq	.-14     	; 0xd28 <bmschip_startGPIO+0x40>
		SPI_CS_LTC6804_HIGH;
     d36:	41 9a       	sbi	0x08, 1	; 8
		spi.locked = 0;
     d38:	f6 01       	movw	r30, r12
     d3a:	12 a2       	std	Z+34, r1	; 0x22
		wait_count = TCNT1;
     d3c:	f8 01       	movw	r30, r16
     d3e:	80 81       	ld	r24, Z
     d40:	91 81       	ldd	r25, Z+1	; 0x01
     d42:	90 93 57 04 	sts	0x0457, r25
     d46:	80 93 56 04 	sts	0x0456, r24
		while ((((wait_count + 20) >= TCNT1)&&(wait_count<TCNT1)) || ((wait_count>TCNT1) && ((TCNT1 + ICR1)<(wait_count + 20))));
     d4a:	ac 01       	movw	r20, r24
     d4c:	4c 5e       	subi	r20, 0xEC	; 236
     d4e:	5f 4f       	sbci	r21, 0xFF	; 255
     d50:	f8 01       	movw	r30, r16
     d52:	20 81       	ld	r18, Z
     d54:	31 81       	ldd	r19, Z+1	; 0x01
     d56:	42 17       	cp	r20, r18
     d58:	53 07       	cpc	r21, r19
     d5a:	28 f0       	brcs	.+10     	; 0xd66 <bmschip_startGPIO+0x7e>
     d5c:	20 81       	ld	r18, Z
     d5e:	31 81       	ldd	r19, Z+1	; 0x01
     d60:	82 17       	cp	r24, r18
     d62:	93 07       	cpc	r25, r19
     d64:	a8 f3       	brcs	.-22     	; 0xd50 <bmschip_startGPIO+0x68>
     d66:	f8 01       	movw	r30, r16
     d68:	20 81       	ld	r18, Z
     d6a:	31 81       	ldd	r19, Z+1	; 0x01
     d6c:	28 17       	cp	r18, r24
     d6e:	39 07       	cpc	r19, r25
     d70:	50 f4       	brcc	.+20     	; 0xd86 <bmschip_startGPIO+0x9e>
     d72:	20 81       	ld	r18, Z
     d74:	31 81       	ldd	r19, Z+1	; 0x01
     d76:	f7 01       	movw	r30, r14
     d78:	60 81       	ld	r22, Z
     d7a:	71 81       	ldd	r23, Z+1	; 0x01
     d7c:	26 0f       	add	r18, r22
     d7e:	37 1f       	adc	r19, r23
     d80:	24 17       	cp	r18, r20
     d82:	35 07       	cpc	r19, r21
     d84:	28 f3       	brcs	.-54     	; 0xd50 <bmschip_startGPIO+0x68>
     d86:	ba 94       	dec	r11
	uint8_t i;
	uint8_t cmd[4];
	cmd[0]=0x00;
	uint16_t pec;
	
	for (i=0; i<slave_boards; i++)
     d88:	b1 10       	cpse	r11, r1
     d8a:	ce cf       	rjmp	.-100    	; 0xd28 <bmschip_startGPIO+0x40>
		wait_count = TCNT1;
		while ((((wait_count + 20) >= TCNT1)&&(wait_count<TCNT1)) || ((wait_count>TCNT1) && ((TCNT1 + ICR1)<(wait_count + 20))));
	}
	
	// Messbefehl
	cmd[0] = 0x05; // ADCV0		Normal-Mode
     d8c:	85 e0       	ldi	r24, 0x05	; 5
     d8e:	89 83       	std	Y+1, r24	; 0x01
	cmd[1] = 0x60; // ADCV1		Normal-Mode, Balancing wird unterbrochen
	
	switch(pin)
     d90:	f3 e0       	ldi	r31, 0x03	; 3
     d92:	af 16       	cp	r10, r31
     d94:	d1 f0       	breq	.+52     	; 0xdca <bmschip_startGPIO+0xe2>
     d96:	fa 15       	cp	r31, r10
     d98:	38 f0       	brcs	.+14     	; 0xda8 <bmschip_startGPIO+0xc0>
     d9a:	81 e0       	ldi	r24, 0x01	; 1
     d9c:	a8 16       	cp	r10, r24
     d9e:	79 f0       	breq	.+30     	; 0xdbe <bmschip_startGPIO+0xd6>
     da0:	e2 e0       	ldi	r30, 0x02	; 2
     da2:	ae 16       	cp	r10, r30
     da4:	79 f0       	breq	.+30     	; 0xdc4 <bmschip_startGPIO+0xdc>
     da6:	08 c0       	rjmp	.+16     	; 0xdb8 <bmschip_startGPIO+0xd0>
     da8:	f5 e0       	ldi	r31, 0x05	; 5
     daa:	af 16       	cp	r10, r31
     dac:	a1 f0       	breq	.+40     	; 0xdd6 <bmschip_startGPIO+0xee>
     dae:	af 16       	cp	r10, r31
     db0:	78 f0       	brcs	.+30     	; 0xdd0 <bmschip_startGPIO+0xe8>
     db2:	86 e0       	ldi	r24, 0x06	; 6
     db4:	a8 16       	cp	r10, r24
     db6:	91 f0       	breq	.+36     	; 0xddc <bmschip_startGPIO+0xf4>
		while ((((wait_count + 20) >= TCNT1)&&(wait_count<TCNT1)) || ((wait_count>TCNT1) && ((TCNT1 + ICR1)<(wait_count + 20))));
	}
	
	// Messbefehl
	cmd[0] = 0x05; // ADCV0		Normal-Mode
	cmd[1] = 0x60; // ADCV1		Normal-Mode, Balancing wird unterbrochen
     db8:	80 e6       	ldi	r24, 0x60	; 96
     dba:	8a 83       	std	Y+2, r24	; 0x02
     dbc:	11 c0       	rjmp	.+34     	; 0xde0 <bmschip_startGPIO+0xf8>
	
	switch(pin)
	{
		case 0: break;								//Alles
		
		case 1: cmd[1] |= (1<<0);					//GPIO 1
     dbe:	81 e6       	ldi	r24, 0x61	; 97
     dc0:	8a 83       	std	Y+2, r24	; 0x02
				break;
     dc2:	0e c0       	rjmp	.+28     	; 0xde0 <bmschip_startGPIO+0xf8>
				
		case 2: cmd[1] |= (1<<1);					//GPIO 2
     dc4:	82 e6       	ldi	r24, 0x62	; 98
     dc6:	8a 83       	std	Y+2, r24	; 0x02
				break;
     dc8:	0b c0       	rjmp	.+22     	; 0xde0 <bmschip_startGPIO+0xf8>
		
		case 3: cmd[1] |= (1<<1) | (1<<0);			//GPIO 3
     dca:	83 e6       	ldi	r24, 0x63	; 99
     dcc:	8a 83       	std	Y+2, r24	; 0x02
				break;
     dce:	08 c0       	rjmp	.+16     	; 0xde0 <bmschip_startGPIO+0xf8>
			
		case 4: cmd[1] |= (1<<2);					//GPIO 4
     dd0:	84 e6       	ldi	r24, 0x64	; 100
     dd2:	8a 83       	std	Y+2, r24	; 0x02
				break;
     dd4:	05 c0       	rjmp	.+10     	; 0xde0 <bmschip_startGPIO+0xf8>
				
		case 5: cmd[1] |= (1<<2) | (1<<0);			//GPIO 5
     dd6:	85 e6       	ldi	r24, 0x65	; 101
     dd8:	8a 83       	std	Y+2, r24	; 0x02
				break;
     dda:	02 c0       	rjmp	.+4      	; 0xde0 <bmschip_startGPIO+0xf8>
		
		case 6: cmd[1] |= (1<<2) | (1<<1);			//Referenzspannung 2
     ddc:	86 e6       	ldi	r24, 0x66	; 102
     dde:	8a 83       	std	Y+2, r24	; 0x02
				break;
	}
	
	pec = Pec15(cmd, 2);
     de0:	62 e0       	ldi	r22, 0x02	; 2
     de2:	ce 01       	movw	r24, r28
     de4:	01 96       	adiw	r24, 0x01	; 1
     de6:	0e 94 18 02 	call	0x430	; 0x430 <Pec15>
	cmd[2] = GET_HIGH_BYTE(pec);
     dea:	9b 83       	std	Y+3, r25	; 0x03
	cmd[3] = GET_LOW_BYTE(pec);
     dec:	8c 83       	std	Y+4, r24	; 0x04
	
	
	// Befehl und PEC schreiben
	
	while(!(bmschip_spi_rw(cmd, 4)));
     dee:	64 e0       	ldi	r22, 0x04	; 4
     df0:	ce 01       	movw	r24, r28
     df2:	01 96       	adiw	r24, 0x01	; 1
     df4:	0e 94 72 01 	call	0x2e4	; 0x2e4 <bmschip_spi_rw>
     df8:	88 23       	and	r24, r24
     dfa:	c9 f3       	breq	.-14     	; 0xdee <bmschip_startGPIO+0x106>
	
	SPI_CS_LTC6804_HIGH;
     dfc:	41 9a       	sbi	0x08, 1	; 8
	spi.locked=0;
     dfe:	10 92 91 04 	sts	0x0491, r1
}
     e02:	0f 90       	pop	r0
     e04:	0f 90       	pop	r0
     e06:	0f 90       	pop	r0
     e08:	0f 90       	pop	r0
     e0a:	df 91       	pop	r29
     e0c:	cf 91       	pop	r28
     e0e:	1f 91       	pop	r17
     e10:	0f 91       	pop	r16
     e12:	ff 90       	pop	r15
     e14:	ef 90       	pop	r14
     e16:	df 90       	pop	r13
     e18:	cf 90       	pop	r12
     e1a:	bf 90       	pop	r11
     e1c:	af 90       	pop	r10
     e1e:	08 95       	ret

00000e20 <bmschip_getTemperature>:

//********************Temperaturwerte auslesen********************
uint8_t bmschip_getTemperature(uint8_t pin)		//vorerst nur GPIO 3 (pin=3)
{
     e20:	2f 92       	push	r2
     e22:	3f 92       	push	r3
     e24:	4f 92       	push	r4
     e26:	5f 92       	push	r5
     e28:	6f 92       	push	r6
     e2a:	7f 92       	push	r7
     e2c:	8f 92       	push	r8
     e2e:	9f 92       	push	r9
     e30:	af 92       	push	r10
     e32:	bf 92       	push	r11
     e34:	cf 92       	push	r12
     e36:	df 92       	push	r13
     e38:	ef 92       	push	r14
     e3a:	ff 92       	push	r15
     e3c:	0f 93       	push	r16
     e3e:	1f 93       	push	r17
     e40:	cf 93       	push	r28
     e42:	df 93       	push	r29
     e44:	cd b7       	in	r28, 0x3d	; 61
     e46:	de b7       	in	r29, 0x3e	; 62
     e48:	6c 97       	sbiw	r28, 0x1c	; 28
     e4a:	0f b6       	in	r0, 0x3f	; 63
     e4c:	f8 94       	cli
     e4e:	de bf       	out	0x3e, r29	; 62
     e50:	0f be       	out	0x3f, r0	; 63
     e52:	cd bf       	out	0x3d, r28	; 61
	uint8_t receive[8];
	uint16_t wait_count;		//Wartezeit für ADC-Messung vom LTC6804
	sint64_t x;					//Zwischenwert für Temperaturkennlinie
	
	// LTC ADC starten
	bmschip_startGPIO(pin);		//Spannung an jeweiligem GPIO
     e54:	0e 94 74 06 	call	0xce8	; 0xce8 <bmschip_startGPIO>
	
	// LTC ADC Wandlung abwarten, 1 Zählschritt entspricht 0,5us
	wait_count = TCNT1;
     e58:	60 91 84 00 	lds	r22, 0x0084
     e5c:	70 91 85 00 	lds	r23, 0x0085
	while ((((wait_count + 900) >= TCNT1)&&(wait_count<TCNT1)) || ((wait_count>TCNT1) && ((TCNT1 + ICR1)<(wait_count + 900))));
     e60:	ab 01       	movw	r20, r22
     e62:	4c 57       	subi	r20, 0x7C	; 124
     e64:	5c 4f       	sbci	r21, 0xFC	; 252
     e66:	e4 e8       	ldi	r30, 0x84	; 132
     e68:	f0 e0       	ldi	r31, 0x00	; 0
     e6a:	a6 e8       	ldi	r26, 0x86	; 134
     e6c:	b0 e0       	ldi	r27, 0x00	; 0
     e6e:	80 81       	ld	r24, Z
     e70:	91 81       	ldd	r25, Z+1	; 0x01
     e72:	48 17       	cp	r20, r24
     e74:	59 07       	cpc	r21, r25
     e76:	28 f0       	brcs	.+10     	; 0xe82 <bmschip_getTemperature+0x62>
     e78:	80 81       	ld	r24, Z
     e7a:	91 81       	ldd	r25, Z+1	; 0x01
     e7c:	68 17       	cp	r22, r24
     e7e:	79 07       	cpc	r23, r25
     e80:	b0 f3       	brcs	.-20     	; 0xe6e <bmschip_getTemperature+0x4e>
     e82:	80 81       	ld	r24, Z
     e84:	91 81       	ldd	r25, Z+1	; 0x01
     e86:	86 17       	cp	r24, r22
     e88:	97 07       	cpc	r25, r23
     e8a:	50 f4       	brcc	.+20     	; 0xea0 <bmschip_getTemperature+0x80>
     e8c:	80 81       	ld	r24, Z
     e8e:	91 81       	ldd	r25, Z+1	; 0x01
     e90:	2d 91       	ld	r18, X+
     e92:	3c 91       	ld	r19, X
     e94:	11 97       	sbiw	r26, 0x01	; 1
     e96:	82 0f       	add	r24, r18
     e98:	93 1f       	adc	r25, r19
     e9a:	84 17       	cp	r24, r20
     e9c:	95 07       	cpc	r25, r21
     e9e:	38 f3       	brcs	.-50     	; 0xe6e <bmschip_getTemperature+0x4e>

	
	bmschip_startGPIO(6);		//Spannung an V_REF2
     ea0:	86 e0       	ldi	r24, 0x06	; 6
     ea2:	0e 94 74 06 	call	0xce8	; 0xce8 <bmschip_startGPIO>
	
	// LTC ADC Wandlung abwarten, 1 Zählschritt entspricht 0,5us
	wait_count = TCNT1;
     ea6:	60 91 84 00 	lds	r22, 0x0084
     eaa:	70 91 85 00 	lds	r23, 0x0085
	while ((((wait_count + 900) >= TCNT1)&&(wait_count<TCNT1)) || ((wait_count>TCNT1) && ((TCNT1 + ICR1)<(wait_count + 900))));
     eae:	ab 01       	movw	r20, r22
     eb0:	4c 57       	subi	r20, 0x7C	; 124
     eb2:	5c 4f       	sbci	r21, 0xFC	; 252
     eb4:	e4 e8       	ldi	r30, 0x84	; 132
     eb6:	f0 e0       	ldi	r31, 0x00	; 0
     eb8:	a6 e8       	ldi	r26, 0x86	; 134
     eba:	b0 e0       	ldi	r27, 0x00	; 0
     ebc:	80 81       	ld	r24, Z
     ebe:	91 81       	ldd	r25, Z+1	; 0x01
     ec0:	48 17       	cp	r20, r24
     ec2:	59 07       	cpc	r21, r25
     ec4:	28 f0       	brcs	.+10     	; 0xed0 <bmschip_getTemperature+0xb0>
     ec6:	80 81       	ld	r24, Z
     ec8:	91 81       	ldd	r25, Z+1	; 0x01
     eca:	68 17       	cp	r22, r24
     ecc:	79 07       	cpc	r23, r25
     ece:	b0 f3       	brcs	.-20     	; 0xebc <bmschip_getTemperature+0x9c>
     ed0:	80 81       	ld	r24, Z
     ed2:	91 81       	ldd	r25, Z+1	; 0x01
     ed4:	86 17       	cp	r24, r22
     ed6:	97 07       	cpc	r25, r23
     ed8:	50 f4       	brcc	.+20     	; 0xeee <bmschip_getTemperature+0xce>
     eda:	80 81       	ld	r24, Z
     edc:	91 81       	ldd	r25, Z+1	; 0x01
     ede:	2d 91       	ld	r18, X+
     ee0:	3c 91       	ld	r19, X
     ee2:	11 97       	sbiw	r26, 0x01	; 1
     ee4:	82 0f       	add	r24, r18
     ee6:	93 1f       	adc	r25, r19
     ee8:	84 17       	cp	r24, r20
     eea:	95 07       	cpc	r25, r21
     eec:	38 f3       	brcs	.-50     	; 0xebc <bmschip_getTemperature+0x9c>
	
	//LTC-Temperatur auslesen
	
	cmd[0] = 0x00;		//Register A lesen
     eee:	19 82       	std	Y+1, r1	; 0x01
	cmd[1] = 0x0C;
     ef0:	8c e0       	ldi	r24, 0x0C	; 12
     ef2:	8a 83       	std	Y+2, r24	; 0x02
	pec = Pec15(cmd, 2);
     ef4:	62 e0       	ldi	r22, 0x02	; 2
     ef6:	ce 01       	movw	r24, r28
     ef8:	01 96       	adiw	r24, 0x01	; 1
     efa:	0e 94 18 02 	call	0x430	; 0x430 <Pec15>
	cmd[2] = GET_HIGH_BYTE(pec);
     efe:	9b 83       	std	Y+3, r25	; 0x03
	cmd[3] = GET_LOW_BYTE(pec);
     f00:	8c 83       	std	Y+4, r24	; 0x04
     f02:	7e 01       	movw	r14, r28
     f04:	05 e0       	ldi	r16, 0x05	; 5
     f06:	e0 0e       	add	r14, r16
     f08:	f1 1c       	adc	r15, r1
     f0a:	6e 01       	movw	r12, r28
     f0c:	1d e0       	ldi	r17, 0x0D	; 13
     f0e:	c1 0e       	add	r12, r17
     f10:	d1 1c       	adc	r13, r1
     f12:	f7 01       	movw	r30, r14
	
	for(i = 4; i < 12; i++)
	{
		cmd[i] = 0x00;
     f14:	11 92       	st	Z+, r1
	cmd[1] = 0x0C;
	pec = Pec15(cmd, 2);
	cmd[2] = GET_HIGH_BYTE(pec);
	cmd[3] = GET_LOW_BYTE(pec);
	
	for(i = 4; i < 12; i++)
     f16:	ec 15       	cp	r30, r12
     f18:	fd 05       	cpc	r31, r13
     f1a:	e1 f7       	brne	.-8      	; 0xf14 <bmschip_getTemperature+0xf4>
	{
		cmd[i] = 0x00;
	}
	
	while(!(bmschip_spi_rw(cmd, 4))); //Command schicken
     f1c:	64 e0       	ldi	r22, 0x04	; 4
     f1e:	ce 01       	movw	r24, r28
     f20:	01 96       	adiw	r24, 0x01	; 1
     f22:	0e 94 72 01 	call	0x2e4	; 0x2e4 <bmschip_spi_rw>
     f26:	88 23       	and	r24, r24
     f28:	c9 f3       	breq	.-14     	; 0xf1c <bmschip_getTemperature+0xfc>
	spi.locked = 0;
     f2a:	10 92 91 04 	sts	0x0491, r1
     f2e:	0e e9       	ldi	r16, 0x9E	; 158
     f30:	16 e0       	ldi	r17, 0x06	; 6
     f32:	1e 8b       	std	Y+22, r17	; 0x16
     f34:	0d 8b       	std	Y+21, r16	; 0x15
     f36:	0f 2e       	mov	r0, r31
     f38:	f2 ea       	ldi	r31, 0xA2	; 162
     f3a:	8f 2e       	mov	r8, r31
     f3c:	f6 e0       	ldi	r31, 0x06	; 6
     f3e:	9f 2e       	mov	r9, r31
     f40:	f0 2d       	mov	r31, r0
     f42:	5e 01       	movw	r10, r28
     f44:	2d e0       	ldi	r18, 0x0D	; 13
     f46:	a2 0e       	add	r10, r18
     f48:	b1 1c       	adc	r11, r1
	
	//Spannungswerte an GPIO3 in bms.temp.V_temp[] uebertragen
	for(i=0; i<slave_boards; i++)
	{
		while(!(bmschip_spi_rw(&cmd[4], 8)));
     f4a:	4a 2c       	mov	r4, r10
     f4c:	5b 2c       	mov	r5, r11
     f4e:	21 2c       	mov	r2, r1
     f50:	31 2c       	mov	r3, r1
     f52:	68 e0       	ldi	r22, 0x08	; 8
     f54:	ce 01       	movw	r24, r28
     f56:	05 96       	adiw	r24, 0x05	; 5
     f58:	0e 94 72 01 	call	0x2e4	; 0x2e4 <bmschip_spi_rw>
     f5c:	88 23       	and	r24, r24
     f5e:	c9 f3       	breq	.-14     	; 0xf52 <bmschip_getTemperature+0x132>
     f60:	6a 2c       	mov	r6, r10
     f62:	7b 2c       	mov	r7, r11
     f64:	e4 2d       	mov	r30, r4
     f66:	f5 2d       	mov	r31, r5
     f68:	22 2d       	mov	r18, r2
     f6a:	33 2d       	mov	r19, r3
		for (k=0; k<8; k++)
		{
			receive[k] = spi.rx_buffer.b[k];
     f6c:	d9 01       	movw	r26, r18
     f6e:	a1 59       	subi	r26, 0x91	; 145
     f70:	bb 4f       	sbci	r27, 0xFB	; 251
     f72:	50 96       	adiw	r26, 0x10	; 16
     f74:	8c 91       	ld	r24, X
     f76:	81 93       	st	Z+, r24
     f78:	2f 5f       	subi	r18, 0xFF	; 255
     f7a:	3f 4f       	sbci	r19, 0xFF	; 255
	
	//Spannungswerte an GPIO3 in bms.temp.V_temp[] uebertragen
	for(i=0; i<slave_boards; i++)
	{
		while(!(bmschip_spi_rw(&cmd[4], 8)));
		for (k=0; k<8; k++)
     f7c:	28 30       	cpi	r18, 0x08	; 8
     f7e:	31 05       	cpc	r19, r1
     f80:	a9 f7       	brne	.-22     	; 0xf6c <bmschip_getTemperature+0x14c>
		{
			receive[k] = spi.rx_buffer.b[k];
		}
		// Emfangene Daten durch Pec-Berechnung pruefen
		pec = Pec15(&(receive[0]), 6);
     f82:	66 e0       	ldi	r22, 0x06	; 6
     f84:	84 2d       	mov	r24, r4
     f86:	95 2d       	mov	r25, r5
     f88:	0e 94 18 02 	call	0x430	; 0x430 <Pec15>
		if(pec == ((((uint16_t)receive[6]) << 8) | receive[7]))
     f8c:	2b 89       	ldd	r18, Y+19	; 0x13
     f8e:	30 e0       	ldi	r19, 0x00	; 0
     f90:	32 2f       	mov	r19, r18
     f92:	22 27       	eor	r18, r18
     f94:	4c 89       	ldd	r20, Y+20	; 0x14
     f96:	24 2b       	or	r18, r20
     f98:	28 17       	cp	r18, r24
     f9a:	39 07       	cpc	r19, r25
     f9c:	71 f4       	brne	.+28     	; 0xfba <bmschip_getTemperature+0x19a>
		{
			bms.temp.V_temp[i] = (((uint16_t)receive[5]) << 8) | receive[4];	//vorerst nur GPIO3
     f9e:	8a 89       	ldd	r24, Y+18	; 0x12
     fa0:	90 e0       	ldi	r25, 0x00	; 0
     fa2:	98 2f       	mov	r25, r24
     fa4:	88 27       	eor	r24, r24
     fa6:	29 89       	ldd	r18, Y+17	; 0x11
     fa8:	82 2b       	or	r24, r18
     faa:	d8 01       	movw	r26, r16
     fac:	8d 93       	st	X+, r24
     fae:	9d 93       	st	X+, r25
     fb0:	8d 01       	movw	r16, r26
	
	while(!(bmschip_spi_rw(cmd, 4))); //Command schicken
	spi.locked = 0;
	
	//Spannungswerte an GPIO3 in bms.temp.V_temp[] uebertragen
	for(i=0; i<slave_boards; i++)
     fb2:	a8 15       	cp	r26, r8
     fb4:	b9 05       	cpc	r27, r9
     fb6:	69 f6       	brne	.-102    	; 0xf52 <bmschip_getTemperature+0x132>
     fb8:	05 c0       	rjmp	.+10     	; 0xfc4 <bmschip_getTemperature+0x1a4>
		{
			bms.temp.V_temp[i] = (((uint16_t)receive[5]) << 8) | receive[4];	//vorerst nur GPIO3
		}
		else
		{
			SPI_CS_LTC6804_HIGH;
     fba:	41 9a       	sbi	0x08, 1	; 8
			spi.locked = 0;
     fbc:	10 92 91 04 	sts	0x0491, r1
			return 1;
     fc0:	81 e0       	ldi	r24, 0x01	; 1
     fc2:	99 c1       	rjmp	.+818    	; 0x12f6 <__stack+0x1f7>
		} 	
	}
	SPI_CS_LTC6804_HIGH;
     fc4:	41 9a       	sbi	0x08, 1	; 8
	spi.locked = 0;
     fc6:	10 92 91 04 	sts	0x0491, r1
	
	cmd[0] = 0x00;		//Register B lesen
     fca:	19 82       	std	Y+1, r1	; 0x01
	cmd[1] = 0x0E;
     fcc:	8e e0       	ldi	r24, 0x0E	; 14
     fce:	8a 83       	std	Y+2, r24	; 0x02
	pec = Pec15(cmd, 2);
     fd0:	62 e0       	ldi	r22, 0x02	; 2
     fd2:	ce 01       	movw	r24, r28
     fd4:	01 96       	adiw	r24, 0x01	; 1
     fd6:	0e 94 18 02 	call	0x430	; 0x430 <Pec15>
	cmd[2] = GET_HIGH_BYTE(pec);
     fda:	9b 83       	std	Y+3, r25	; 0x03
	cmd[3] = GET_LOW_BYTE(pec);
     fdc:	8c 83       	std	Y+4, r24	; 0x04
     fde:	f7 01       	movw	r30, r14
	
	for(i = 4; i < 12; i++)
	{
		cmd[i] = 0x00;
     fe0:	11 92       	st	Z+, r1
	cmd[1] = 0x0E;
	pec = Pec15(cmd, 2);
	cmd[2] = GET_HIGH_BYTE(pec);
	cmd[3] = GET_LOW_BYTE(pec);
	
	for(i = 4; i < 12; i++)
     fe2:	ce 16       	cp	r12, r30
     fe4:	df 06       	cpc	r13, r31
     fe6:	e1 f7       	brne	.-8      	; 0xfe0 <bmschip_getTemperature+0x1c0>
	{
		cmd[i] = 0x00;
	}
	
	while(!(bmschip_spi_rw(cmd, 4))); //Command schicken
     fe8:	64 e0       	ldi	r22, 0x04	; 4
     fea:	ce 01       	movw	r24, r28
     fec:	01 96       	adiw	r24, 0x01	; 1
     fee:	0e 94 72 01 	call	0x2e4	; 0x2e4 <bmschip_spi_rw>
     ff2:	88 23       	and	r24, r24
     ff4:	c9 f3       	breq	.-14     	; 0xfe8 <bmschip_getTemperature+0x1c8>
	spi.locked = 0;
     ff6:	10 92 91 04 	sts	0x0491, r1
     ffa:	02 ea       	ldi	r16, 0xA2	; 162
     ffc:	16 e0       	ldi	r17, 0x06	; 6
     ffe:	0f 2e       	mov	r0, r31
    1000:	f6 ea       	ldi	r31, 0xA6	; 166
    1002:	ef 2e       	mov	r14, r31
    1004:	f6 e0       	ldi	r31, 0x06	; 6
    1006:	ff 2e       	mov	r15, r31
    1008:	f0 2d       	mov	r31, r0
    100a:	c1 2c       	mov	r12, r1
    100c:	d1 2c       	mov	r13, r1
	
	//Spannungswerte von V_REF2 in bms.temp.V_temp[] uebertragen
	for(i=0; i<slave_boards; i++)
	{
		while(!(bmschip_spi_rw(&cmd[4], 8)));
    100e:	68 e0       	ldi	r22, 0x08	; 8
    1010:	ce 01       	movw	r24, r28
    1012:	05 96       	adiw	r24, 0x05	; 5
    1014:	0e 94 72 01 	call	0x2e4	; 0x2e4 <bmschip_spi_rw>
    1018:	88 23       	and	r24, r24
    101a:	c9 f3       	breq	.-14     	; 0x100e <bmschip_getTemperature+0x1ee>
    101c:	e6 2d       	mov	r30, r6
    101e:	f7 2d       	mov	r31, r7
    1020:	8c 2d       	mov	r24, r12
    1022:	9d 2d       	mov	r25, r13
		for (k=0; k<8; k++)
		{
			receive[k] = spi.rx_buffer.b[k];
    1024:	dc 01       	movw	r26, r24
    1026:	a1 59       	subi	r26, 0x91	; 145
    1028:	bb 4f       	sbci	r27, 0xFB	; 251
    102a:	50 96       	adiw	r26, 0x10	; 16
    102c:	2c 91       	ld	r18, X
    102e:	21 93       	st	Z+, r18
    1030:	01 96       	adiw	r24, 0x01	; 1
	
	//Spannungswerte von V_REF2 in bms.temp.V_temp[] uebertragen
	for(i=0; i<slave_boards; i++)
	{
		while(!(bmschip_spi_rw(&cmd[4], 8)));
		for (k=0; k<8; k++)
    1032:	88 30       	cpi	r24, 0x08	; 8
    1034:	91 05       	cpc	r25, r1
    1036:	b1 f7       	brne	.-20     	; 0x1024 <bmschip_getTemperature+0x204>
		{
			receive[k] = spi.rx_buffer.b[k];
		}
		// Emfangene Daten durch Pec-Berechnung pruefen
		pec = Pec15(&(receive[0]), 6);
    1038:	66 e0       	ldi	r22, 0x06	; 6
    103a:	ce 01       	movw	r24, r28
    103c:	0d 96       	adiw	r24, 0x0d	; 13
    103e:	0e 94 18 02 	call	0x430	; 0x430 <Pec15>
		if(pec == ((((uint16_t)receive[6]) << 8) | receive[7]))
    1042:	2b 89       	ldd	r18, Y+19	; 0x13
    1044:	30 e0       	ldi	r19, 0x00	; 0
    1046:	32 2f       	mov	r19, r18
    1048:	22 27       	eor	r18, r18
    104a:	4c 89       	ldd	r20, Y+20	; 0x14
    104c:	24 2b       	or	r18, r20
    104e:	28 17       	cp	r18, r24
    1050:	39 07       	cpc	r19, r25
    1052:	71 f4       	brne	.+28     	; 0x1070 <bmschip_getTemperature+0x250>
		{
			bms.temp.V_reference[i] = (((uint16_t)receive[5]) << 8) | receive[4];	//V_REF2
    1054:	8a 89       	ldd	r24, Y+18	; 0x12
    1056:	90 e0       	ldi	r25, 0x00	; 0
    1058:	98 2f       	mov	r25, r24
    105a:	88 27       	eor	r24, r24
    105c:	29 89       	ldd	r18, Y+17	; 0x11
    105e:	82 2b       	or	r24, r18
    1060:	f8 01       	movw	r30, r16
    1062:	81 93       	st	Z+, r24
    1064:	91 93       	st	Z+, r25
    1066:	8f 01       	movw	r16, r30
	
	while(!(bmschip_spi_rw(cmd, 4))); //Command schicken
	spi.locked = 0;
	
	//Spannungswerte von V_REF2 in bms.temp.V_temp[] uebertragen
	for(i=0; i<slave_boards; i++)
    1068:	ee 15       	cp	r30, r14
    106a:	ff 05       	cpc	r31, r15
    106c:	81 f6       	brne	.-96     	; 0x100e <bmschip_getTemperature+0x1ee>
    106e:	09 c0       	rjmp	.+18     	; 0x1082 <bmschip_getTemperature+0x262>
		{
			bms.temp.V_reference[i] = (((uint16_t)receive[5]) << 8) | receive[4];	//V_REF2
		}
		else
		{
			usart_transmit_string("F2");
    1070:	8d e4       	ldi	r24, 0x4D	; 77
    1072:	91 e0       	ldi	r25, 0x01	; 1
    1074:	0e 94 9b 0d 	call	0x1b36	; 0x1b36 <usart_transmit_string>
			SPI_CS_LTC6804_HIGH;
    1078:	41 9a       	sbi	0x08, 1	; 8
			spi.locked = 0;
    107a:	10 92 91 04 	sts	0x0491, r1
			return 1;
    107e:	81 e0       	ldi	r24, 0x01	; 1
    1080:	3a c1       	rjmp	.+628    	; 0x12f6 <__stack+0x1f7>
		}
	}
	
	
	SPI_CS_LTC6804_HIGH;
    1082:	41 9a       	sbi	0x08, 1	; 8
	spi.locked = 0;
    1084:	10 92 91 04 	sts	0x0491, r1
    1088:	06 ea       	ldi	r16, 0xA6	; 166
    108a:	16 e0       	ldi	r17, 0x06	; 6
    108c:	0f 2e       	mov	r0, r31
    108e:	fe ea       	ldi	r31, 0xAE	; 174
    1090:	4f 2e       	mov	r4, r31
    1092:	f6 e0       	ldi	r31, 0x06	; 6
    1094:	5f 2e       	mov	r5, r31
    1096:	f0 2d       	mov	r31, r0
    1098:	6d 88       	ldd	r6, Y+21	; 0x15
    109a:	7e 88       	ldd	r7, Y+22	; 0x16
    109c:	48 01       	movw	r8, r16
	
	// Nachbildung der Thermistorkennlinie und Berechnung der Temperatur
	for(i=0; i<slave_boards; i++)
	{
		x = (((sint64_t)bms.temp.V_temp[i])*1000000)/(sint64_t)bms.temp.V_reference[i];	
    109e:	d3 01       	movw	r26, r6
    10a0:	8d 91       	ld	r24, X+
    10a2:	9d 91       	ld	r25, X+
    10a4:	3d 01       	movw	r6, r26
    10a6:	5c 01       	movw	r10, r24
    10a8:	8d 8b       	std	Y+21, r24	; 0x15
    10aa:	be 8a       	std	Y+22, r11	; 0x16
    10ac:	28 2f       	mov	r18, r24
    10ae:	3b 2d       	mov	r19, r11
    10b0:	40 e0       	ldi	r20, 0x00	; 0
    10b2:	50 e0       	ldi	r21, 0x00	; 0
    10b4:	60 e0       	ldi	r22, 0x00	; 0
    10b6:	70 e0       	ldi	r23, 0x00	; 0
    10b8:	80 e0       	ldi	r24, 0x00	; 0
    10ba:	90 e0       	ldi	r25, 0x00	; 0
    10bc:	05 e0       	ldi	r16, 0x05	; 5
    10be:	0e 94 20 13 	call	0x2640	; 0x2640 <__ashldi3>
    10c2:	c1 2c       	mov	r12, r1
    10c4:	d1 2c       	mov	r13, r1
    10c6:	e1 2c       	mov	r14, r1
    10c8:	f1 2c       	mov	r15, r1
    10ca:	00 e0       	ldi	r16, 0x00	; 0
    10cc:	10 e0       	ldi	r17, 0x00	; 0
    10ce:	0e 94 42 13 	call	0x2684	; 0x2684 <__subdi3>
    10d2:	a2 2e       	mov	r10, r18
    10d4:	b3 2e       	mov	r11, r19
    10d6:	c4 2e       	mov	r12, r20
    10d8:	d5 2e       	mov	r13, r21
    10da:	e6 2e       	mov	r14, r22
    10dc:	f7 2e       	mov	r15, r23
    10de:	e8 2f       	mov	r30, r24
    10e0:	19 2f       	mov	r17, r25
    10e2:	06 e0       	ldi	r16, 0x06	; 6
    10e4:	0e 94 20 13 	call	0x2640	; 0x2640 <__ashldi3>
    10e8:	0e 2f       	mov	r16, r30
    10ea:	0e 94 42 13 	call	0x2684	; 0x2684 <__subdi3>
    10ee:	03 e0       	ldi	r16, 0x03	; 3
    10f0:	0e 94 20 13 	call	0x2640	; 0x2640 <__ashldi3>
    10f4:	ad 88       	ldd	r10, Y+21	; 0x15
    10f6:	be 88       	ldd	r11, Y+22	; 0x16
    10f8:	c1 2c       	mov	r12, r1
    10fa:	d1 2c       	mov	r13, r1
    10fc:	e1 2c       	mov	r14, r1
    10fe:	f1 2c       	mov	r15, r1
    1100:	00 e0       	ldi	r16, 0x00	; 0
    1102:	10 e0       	ldi	r17, 0x00	; 0
    1104:	0e 94 39 13 	call	0x2672	; 0x2672 <__adddi3>
    1108:	06 e0       	ldi	r16, 0x06	; 6
    110a:	0e 94 20 13 	call	0x2640	; 0x2640 <__ashldi3>
    110e:	12 96       	adiw	r26, 0x02	; 2
    1110:	ed 91       	ld	r30, X+
    1112:	fc 91       	ld	r31, X
    1114:	13 97       	sbiw	r26, 0x03	; 3
    1116:	5f 01       	movw	r10, r30
    1118:	c1 2c       	mov	r12, r1
    111a:	d1 2c       	mov	r13, r1
    111c:	e1 2c       	mov	r14, r1
    111e:	f1 2c       	mov	r15, r1
    1120:	87 01       	movw	r16, r14
    1122:	ed 8b       	std	Y+21, r30	; 0x15
    1124:	be 8a       	std	Y+22, r11	; 0x16
    1126:	cf 8a       	std	Y+23, r12	; 0x17
    1128:	d8 8e       	std	Y+24, r13	; 0x18
    112a:	e9 8e       	std	Y+25, r14	; 0x19
    112c:	fa 8e       	std	Y+26, r15	; 0x1a
    112e:	0b 8f       	std	Y+27, r16	; 0x1b
    1130:	1c 8f       	std	Y+28, r17	; 0x1c
    1132:	c1 2c       	mov	r12, r1
    1134:	d1 2c       	mov	r13, r1
    1136:	e1 2c       	mov	r14, r1
    1138:	f1 2c       	mov	r15, r1
    113a:	00 e0       	ldi	r16, 0x00	; 0
    113c:	10 e0       	ldi	r17, 0x00	; 0
    113e:	0e 94 4b 12 	call	0x2496	; 0x2496 <__divdi3>
    1142:	e2 2e       	mov	r14, r18
    1144:	f3 2e       	mov	r15, r19
    1146:	04 2f       	mov	r16, r20
    1148:	15 2f       	mov	r17, r21
    114a:	b6 2f       	mov	r27, r22
    114c:	a7 2f       	mov	r26, r23
    114e:	f8 2f       	mov	r31, r24
    1150:	d9 2e       	mov	r13, r25
		
		if(x>=780000)
    1152:	2f 3d       	cpi	r18, 0xDF	; 223
    1154:	e6 ee       	ldi	r30, 0xE6	; 230
    1156:	3e 07       	cpc	r19, r30
    1158:	eb e0       	ldi	r30, 0x0B	; 11
    115a:	4e 07       	cpc	r20, r30
    115c:	51 05       	cpc	r21, r1
    115e:	61 05       	cpc	r22, r1
    1160:	71 05       	cpc	r23, r1
    1162:	81 05       	cpc	r24, r1
    1164:	91 05       	cpc	r25, r1
    1166:	31 f1       	breq	.+76     	; 0x11b4 <__stack+0xb5>
    1168:	2c f1       	brlt	.+74     	; 0x11b4 <__stack+0xb5>
		{
			bms.temp.temp_transmit[i] = (sint32_t)((x-780000)/(-70));		
    116a:	20 5e       	subi	r18, 0xE0	; 224
    116c:	36 4e       	sbci	r19, 0xE6	; 230
    116e:	4b 40       	sbci	r20, 0x0B	; 11
    1170:	51 09       	sbc	r21, r1
    1172:	61 09       	sbc	r22, r1
    1174:	71 09       	sbc	r23, r1
    1176:	81 09       	sbc	r24, r1
    1178:	91 09       	sbc	r25, r1
    117a:	0f 2e       	mov	r0, r31
    117c:	fa eb       	ldi	r31, 0xBA	; 186
    117e:	af 2e       	mov	r10, r31
    1180:	f0 2d       	mov	r31, r0
    1182:	bb 24       	eor	r11, r11
    1184:	ba 94       	dec	r11
    1186:	cc 24       	eor	r12, r12
    1188:	ca 94       	dec	r12
    118a:	dd 24       	eor	r13, r13
    118c:	da 94       	dec	r13
    118e:	ee 24       	eor	r14, r14
    1190:	ea 94       	dec	r14
    1192:	ff 24       	eor	r15, r15
    1194:	fa 94       	dec	r15
    1196:	0f ef       	ldi	r16, 0xFF	; 255
    1198:	1f ef       	ldi	r17, 0xFF	; 255
    119a:	0e 94 4b 12 	call	0x2496	; 0x2496 <__divdi3>
    119e:	d4 01       	movw	r26, r8
    11a0:	2c 93       	st	X, r18
    11a2:	11 96       	adiw	r26, 0x01	; 1
    11a4:	3c 93       	st	X, r19
    11a6:	11 97       	sbiw	r26, 0x01	; 1
    11a8:	12 96       	adiw	r26, 0x02	; 2
    11aa:	4c 93       	st	X, r20
    11ac:	12 97       	sbiw	r26, 0x02	; 2
    11ae:	13 96       	adiw	r26, 0x03	; 3
    11b0:	5c 93       	st	X, r21
    11b2:	99 c0       	rjmp	.+306    	; 0x12e6 <__stack+0x1e7>
		}
		else if(x>=340000)
    11b4:	2e 2d       	mov	r18, r14
    11b6:	3f 2d       	mov	r19, r15
    11b8:	40 2f       	mov	r20, r16
    11ba:	51 2f       	mov	r21, r17
    11bc:	6b 2f       	mov	r22, r27
    11be:	7a 2f       	mov	r23, r26
    11c0:	8f 2f       	mov	r24, r31
    11c2:	9d 2d       	mov	r25, r13
    11c4:	2f 31       	cpi	r18, 0x1F	; 31
    11c6:	e0 e3       	ldi	r30, 0x30	; 48
    11c8:	3e 07       	cpc	r19, r30
    11ca:	e5 e0       	ldi	r30, 0x05	; 5
    11cc:	4e 07       	cpc	r20, r30
    11ce:	51 05       	cpc	r21, r1
    11d0:	61 05       	cpc	r22, r1
    11d2:	71 05       	cpc	r23, r1
    11d4:	81 05       	cpc	r24, r1
    11d6:	91 05       	cpc	r25, r1
    11d8:	31 f1       	breq	.+76     	; 0x1226 <__stack+0x127>
    11da:	2c f1       	brlt	.+74     	; 0x1226 <__stack+0x127>
		{
			bms.temp.temp_transmit[i] = (sint32_t)((x-780000)/(-110));		
    11dc:	20 5e       	subi	r18, 0xE0	; 224
    11de:	36 4e       	sbci	r19, 0xE6	; 230
    11e0:	4b 40       	sbci	r20, 0x0B	; 11
    11e2:	51 09       	sbc	r21, r1
    11e4:	61 09       	sbc	r22, r1
    11e6:	71 09       	sbc	r23, r1
    11e8:	81 09       	sbc	r24, r1
    11ea:	91 09       	sbc	r25, r1
    11ec:	0f 2e       	mov	r0, r31
    11ee:	f2 e9       	ldi	r31, 0x92	; 146
    11f0:	af 2e       	mov	r10, r31
    11f2:	f0 2d       	mov	r31, r0
    11f4:	bb 24       	eor	r11, r11
    11f6:	ba 94       	dec	r11
    11f8:	cc 24       	eor	r12, r12
    11fa:	ca 94       	dec	r12
    11fc:	dd 24       	eor	r13, r13
    11fe:	da 94       	dec	r13
    1200:	ee 24       	eor	r14, r14
    1202:	ea 94       	dec	r14
    1204:	ff 24       	eor	r15, r15
    1206:	fa 94       	dec	r15
    1208:	0f ef       	ldi	r16, 0xFF	; 255
    120a:	1f ef       	ldi	r17, 0xFF	; 255
    120c:	0e 94 4b 12 	call	0x2496	; 0x2496 <__divdi3>
    1210:	d4 01       	movw	r26, r8
    1212:	2c 93       	st	X, r18
    1214:	11 96       	adiw	r26, 0x01	; 1
    1216:	3c 93       	st	X, r19
    1218:	11 97       	sbiw	r26, 0x01	; 1
    121a:	12 96       	adiw	r26, 0x02	; 2
    121c:	4c 93       	st	X, r20
    121e:	12 97       	sbiw	r26, 0x02	; 2
    1220:	13 96       	adiw	r26, 0x03	; 3
    1222:	5c 93       	st	X, r21
    1224:	60 c0       	rjmp	.+192    	; 0x12e6 <__stack+0x1e7>
		}
		else if(x<183000)
    1226:	2e 2d       	mov	r18, r14
    1228:	3f 2d       	mov	r19, r15
    122a:	40 2f       	mov	r20, r16
    122c:	51 2f       	mov	r21, r17
    122e:	6b 2f       	mov	r22, r27
    1230:	7a 2f       	mov	r23, r26
    1232:	8f 2f       	mov	r24, r31
    1234:	9d 2d       	mov	r25, r13
    1236:	27 3d       	cpi	r18, 0xD7	; 215
    1238:	ea ec       	ldi	r30, 0xCA	; 202
    123a:	3e 07       	cpc	r19, r30
    123c:	e2 e0       	ldi	r30, 0x02	; 2
    123e:	4e 07       	cpc	r20, r30
    1240:	51 05       	cpc	r21, r1
    1242:	61 05       	cpc	r22, r1
    1244:	71 05       	cpc	r23, r1
    1246:	81 05       	cpc	r24, r1
    1248:	91 05       	cpc	r25, r1
    124a:	09 f0       	breq	.+2      	; 0x124e <__stack+0x14f>
    124c:	2c f5       	brge	.+74     	; 0x1298 <__stack+0x199>
		{
			bms.temp.temp_transmit[i] = (sint32_t)((x-490000)/(-51));		
    124e:	20 51       	subi	r18, 0x10	; 16
    1250:	3a 47       	sbci	r19, 0x7A	; 122
    1252:	47 40       	sbci	r20, 0x07	; 7
    1254:	51 09       	sbc	r21, r1
    1256:	61 09       	sbc	r22, r1
    1258:	71 09       	sbc	r23, r1
    125a:	81 09       	sbc	r24, r1
    125c:	91 09       	sbc	r25, r1
    125e:	0f 2e       	mov	r0, r31
    1260:	fd ec       	ldi	r31, 0xCD	; 205
    1262:	af 2e       	mov	r10, r31
    1264:	f0 2d       	mov	r31, r0
    1266:	bb 24       	eor	r11, r11
    1268:	ba 94       	dec	r11
    126a:	cc 24       	eor	r12, r12
    126c:	ca 94       	dec	r12
    126e:	dd 24       	eor	r13, r13
    1270:	da 94       	dec	r13
    1272:	ee 24       	eor	r14, r14
    1274:	ea 94       	dec	r14
    1276:	ff 24       	eor	r15, r15
    1278:	fa 94       	dec	r15
    127a:	0f ef       	ldi	r16, 0xFF	; 255
    127c:	1f ef       	ldi	r17, 0xFF	; 255
    127e:	0e 94 4b 12 	call	0x2496	; 0x2496 <__divdi3>
    1282:	d4 01       	movw	r26, r8
    1284:	2c 93       	st	X, r18
    1286:	11 96       	adiw	r26, 0x01	; 1
    1288:	3c 93       	st	X, r19
    128a:	11 97       	sbiw	r26, 0x01	; 1
    128c:	12 96       	adiw	r26, 0x02	; 2
    128e:	4c 93       	st	X, r20
    1290:	12 97       	sbiw	r26, 0x02	; 2
    1292:	13 96       	adiw	r26, 0x03	; 3
    1294:	5c 93       	st	X, r21
    1296:	27 c0       	rjmp	.+78     	; 0x12e6 <__stack+0x1e7>
		}
		else
		{
			bms.temp.temp_transmit[i] = (sint32_t)((x-645000)/(-77));		
    1298:	2e 2d       	mov	r18, r14
    129a:	3f 2d       	mov	r19, r15
    129c:	40 2f       	mov	r20, r16
    129e:	51 2f       	mov	r21, r17
    12a0:	6b 2f       	mov	r22, r27
    12a2:	7a 2f       	mov	r23, r26
    12a4:	8f 2f       	mov	r24, r31
    12a6:	9d 2d       	mov	r25, r13
    12a8:	28 58       	subi	r18, 0x88	; 136
    12aa:	37 4d       	sbci	r19, 0xD7	; 215
    12ac:	49 40       	sbci	r20, 0x09	; 9
    12ae:	51 09       	sbc	r21, r1
    12b0:	61 09       	sbc	r22, r1
    12b2:	71 09       	sbc	r23, r1
    12b4:	81 09       	sbc	r24, r1
    12b6:	91 09       	sbc	r25, r1
    12b8:	0f 2e       	mov	r0, r31
    12ba:	f3 eb       	ldi	r31, 0xB3	; 179
    12bc:	af 2e       	mov	r10, r31
    12be:	f0 2d       	mov	r31, r0
    12c0:	bb 24       	eor	r11, r11
    12c2:	ba 94       	dec	r11
    12c4:	cc 24       	eor	r12, r12
    12c6:	ca 94       	dec	r12
    12c8:	dd 24       	eor	r13, r13
    12ca:	da 94       	dec	r13
    12cc:	ee 24       	eor	r14, r14
    12ce:	ea 94       	dec	r14
    12d0:	ff 24       	eor	r15, r15
    12d2:	fa 94       	dec	r15
    12d4:	0f ef       	ldi	r16, 0xFF	; 255
    12d6:	1f ef       	ldi	r17, 0xFF	; 255
    12d8:	0e 94 4b 12 	call	0x2496	; 0x2496 <__divdi3>
    12dc:	f4 01       	movw	r30, r8
    12de:	20 83       	st	Z, r18
    12e0:	31 83       	std	Z+1, r19	; 0x01
    12e2:	42 83       	std	Z+2, r20	; 0x02
    12e4:	53 83       	std	Z+3, r21	; 0x03
    12e6:	f4 e0       	ldi	r31, 0x04	; 4
    12e8:	8f 0e       	add	r8, r31
    12ea:	91 1c       	adc	r9, r1
	
	SPI_CS_LTC6804_HIGH;
	spi.locked = 0;
	
	// Nachbildung der Thermistorkennlinie und Berechnung der Temperatur
	for(i=0; i<slave_boards; i++)
    12ec:	84 14       	cp	r8, r4
    12ee:	95 04       	cpc	r9, r5
    12f0:	09 f0       	breq	.+2      	; 0x12f4 <__stack+0x1f5>
    12f2:	d5 ce       	rjmp	.-598    	; 0x109e <bmschip_getTemperature+0x27e>
			bms.temp.temp_transmit[i] = (sint32_t)((x-645000)/(-77));		
		}
		
	}

	return 0;
    12f4:	80 e0       	ldi	r24, 0x00	; 0
	
    12f6:	6c 96       	adiw	r28, 0x1c	; 28
    12f8:	0f b6       	in	r0, 0x3f	; 63
    12fa:	f8 94       	cli
    12fc:	de bf       	out	0x3e, r29	; 62
    12fe:	0f be       	out	0x3f, r0	; 63
    1300:	cd bf       	out	0x3d, r28	; 61
    1302:	df 91       	pop	r29
    1304:	cf 91       	pop	r28
    1306:	1f 91       	pop	r17
    1308:	0f 91       	pop	r16
    130a:	ff 90       	pop	r15
    130c:	ef 90       	pop	r14
    130e:	df 90       	pop	r13
    1310:	cf 90       	pop	r12
    1312:	bf 90       	pop	r11
    1314:	af 90       	pop	r10
    1316:	9f 90       	pop	r9
    1318:	8f 90       	pop	r8
    131a:	7f 90       	pop	r7
    131c:	6f 90       	pop	r6
    131e:	5f 90       	pop	r5
    1320:	4f 90       	pop	r4
    1322:	3f 90       	pop	r3
    1324:	2f 90       	pop	r2
    1326:	08 95       	ret

00001328 <can_init>:
    1328:	2f 92       	push	r2
    132a:	3f 92       	push	r3
    132c:	4f 92       	push	r4
    132e:	5f 92       	push	r5
    1330:	7f 92       	push	r7
    1332:	8f 92       	push	r8
    1334:	af 92       	push	r10
    1336:	bf 92       	push	r11
    1338:	cf 92       	push	r12
    133a:	df 92       	push	r13
    133c:	ef 92       	push	r14
    133e:	ff 92       	push	r15
    1340:	0f 93       	push	r16
    1342:	1f 93       	push	r17
    1344:	cf 93       	push	r28
    1346:	df 93       	push	r29
    1348:	10 92 d8 00 	sts	0x00D8, r1
    134c:	88 3e       	cpi	r24, 0xE8	; 232
    134e:	23 e0       	ldi	r18, 0x03	; 3
    1350:	92 07       	cpc	r25, r18
    1352:	49 f4       	brne	.+18     	; 0x1366 <can_init+0x3e>
    1354:	10 92 e2 00 	sts	0x00E2, r1
    1358:	8a e0       	ldi	r24, 0x0A	; 10
    135a:	80 93 e3 00 	sts	0x00E3, r24
    135e:	8c e1       	ldi	r24, 0x1C	; 28
    1360:	80 93 e4 00 	sts	0x00E4, r24
    1364:	47 c0       	rjmp	.+142    	; 0x13f4 <can_init+0xcc>
    1366:	84 3f       	cpi	r24, 0xF4	; 244
    1368:	e1 e0       	ldi	r30, 0x01	; 1
    136a:	9e 07       	cpc	r25, r30
    136c:	49 f4       	brne	.+18     	; 0x1380 <can_init+0x58>
    136e:	82 e0       	ldi	r24, 0x02	; 2
    1370:	80 93 e2 00 	sts	0x00E2, r24
    1374:	8a e2       	ldi	r24, 0x2A	; 42
    1376:	80 93 e3 00 	sts	0x00E3, r24
    137a:	80 93 e4 00 	sts	0x00E4, r24
    137e:	3a c0       	rjmp	.+116    	; 0x13f4 <can_init+0xcc>
    1380:	8a 3f       	cpi	r24, 0xFA	; 250
    1382:	91 05       	cpc	r25, r1
    1384:	49 f4       	brne	.+18     	; 0x1398 <can_init+0x70>
    1386:	86 e0       	ldi	r24, 0x06	; 6
    1388:	80 93 e2 00 	sts	0x00E2, r24
    138c:	8a e2       	ldi	r24, 0x2A	; 42
    138e:	80 93 e3 00 	sts	0x00E3, r24
    1392:	80 93 e4 00 	sts	0x00E4, r24
    1396:	2e c0       	rjmp	.+92     	; 0x13f4 <can_init+0xcc>
    1398:	8e e0       	ldi	r24, 0x0E	; 14
    139a:	80 93 e2 00 	sts	0x00E2, r24
    139e:	8a e2       	ldi	r24, 0x2A	; 42
    13a0:	80 93 e3 00 	sts	0x00E3, r24
    13a4:	80 93 e4 00 	sts	0x00E4, r24
    13a8:	25 c0       	rjmp	.+74     	; 0x13f4 <can_init+0xcc>
    13aa:	88 2e       	mov	r8, r24
    13ac:	88 0c       	add	r8, r8
    13ae:	88 0c       	add	r8, r8
    13b0:	88 0c       	add	r8, r8
    13b2:	88 0c       	add	r8, r8
    13b4:	f6 01       	movw	r30, r12
    13b6:	80 82       	st	Z, r8
    13b8:	f7 01       	movw	r30, r14
    13ba:	10 82       	st	Z, r1
    13bc:	84 30       	cpi	r24, 0x04	; 4
    13be:	18 f4       	brcc	.+6      	; 0x13c6 <can_init+0x9e>
    13c0:	f5 01       	movw	r30, r10
    13c2:	70 82       	st	Z, r7
    13c4:	02 c0       	rjmp	.+4      	; 0x13ca <can_init+0xa2>
    13c6:	f5 01       	movw	r30, r10
    13c8:	10 82       	st	Z, r1
    13ca:	f8 01       	movw	r30, r16
    13cc:	10 82       	st	Z, r1
    13ce:	fb 01       	movw	r30, r22
    13d0:	10 82       	st	Z, r1
    13d2:	fa 01       	movw	r30, r20
    13d4:	10 82       	st	Z, r1
    13d6:	f9 01       	movw	r30, r18
    13d8:	10 82       	st	Z, r1
    13da:	f2 01       	movw	r30, r4
    13dc:	10 82       	st	Z, r1
    13de:	18 82       	st	Y, r1
    13e0:	1c 92       	st	X, r1
    13e2:	f1 01       	movw	r30, r2
    13e4:	10 82       	st	Z, r1
    13e6:	8f 5f       	subi	r24, 0xFF	; 255
    13e8:	86 30       	cpi	r24, 0x06	; 6
    13ea:	f9 f6       	brne	.-66     	; 0x13aa <can_init+0x82>
    13ec:	82 e0       	ldi	r24, 0x02	; 2
    13ee:	80 93 d8 00 	sts	0x00D8, r24
    13f2:	2a c0       	rjmp	.+84     	; 0x1448 <can_init+0x120>
    13f4:	80 e0       	ldi	r24, 0x00	; 0
    13f6:	0f 2e       	mov	r0, r31
    13f8:	fd ee       	ldi	r31, 0xED	; 237
    13fa:	cf 2e       	mov	r12, r31
    13fc:	d1 2c       	mov	r13, r1
    13fe:	f0 2d       	mov	r31, r0
    1400:	0f 2e       	mov	r0, r31
    1402:	fe ee       	ldi	r31, 0xEE	; 238
    1404:	ef 2e       	mov	r14, r31
    1406:	f1 2c       	mov	r15, r1
    1408:	f0 2d       	mov	r31, r0
    140a:	0f 2e       	mov	r0, r31
    140c:	ff ee       	ldi	r31, 0xEF	; 239
    140e:	af 2e       	mov	r10, r31
    1410:	b1 2c       	mov	r11, r1
    1412:	f0 2d       	mov	r31, r0
    1414:	68 94       	set
    1416:	77 24       	eor	r7, r7
    1418:	77 f8       	bld	r7, 7
    141a:	00 ef       	ldi	r16, 0xF0	; 240
    141c:	10 e0       	ldi	r17, 0x00	; 0
    141e:	61 ef       	ldi	r22, 0xF1	; 241
    1420:	70 e0       	ldi	r23, 0x00	; 0
    1422:	42 ef       	ldi	r20, 0xF2	; 242
    1424:	50 e0       	ldi	r21, 0x00	; 0
    1426:	23 ef       	ldi	r18, 0xF3	; 243
    1428:	30 e0       	ldi	r19, 0x00	; 0
    142a:	0f 2e       	mov	r0, r31
    142c:	f4 ef       	ldi	r31, 0xF4	; 244
    142e:	4f 2e       	mov	r4, r31
    1430:	51 2c       	mov	r5, r1
    1432:	f0 2d       	mov	r31, r0
    1434:	c5 ef       	ldi	r28, 0xF5	; 245
    1436:	d0 e0       	ldi	r29, 0x00	; 0
    1438:	a6 ef       	ldi	r26, 0xF6	; 246
    143a:	b0 e0       	ldi	r27, 0x00	; 0
    143c:	0f 2e       	mov	r0, r31
    143e:	f7 ef       	ldi	r31, 0xF7	; 247
    1440:	2f 2e       	mov	r2, r31
    1442:	31 2c       	mov	r3, r1
    1444:	f0 2d       	mov	r31, r0
    1446:	b1 cf       	rjmp	.-158    	; 0x13aa <can_init+0x82>
    1448:	df 91       	pop	r29
    144a:	cf 91       	pop	r28
    144c:	1f 91       	pop	r17
    144e:	0f 91       	pop	r16
    1450:	ff 90       	pop	r15
    1452:	ef 90       	pop	r14
    1454:	df 90       	pop	r13
    1456:	cf 90       	pop	r12
    1458:	bf 90       	pop	r11
    145a:	af 90       	pop	r10
    145c:	8f 90       	pop	r8
    145e:	7f 90       	pop	r7
    1460:	5f 90       	pop	r5
    1462:	4f 90       	pop	r4
    1464:	3f 90       	pop	r3
    1466:	2f 90       	pop	r2
    1468:	08 95       	ret

0000146a <can_receive_message>:
    146a:	0f 93       	push	r16
    146c:	1f 93       	push	r17
    146e:	cf 93       	push	r28
    1470:	df 93       	push	r29
    1472:	8c 01       	movw	r16, r24
    1474:	10 92 ed 00 	sts	0x00ED, r1
    1478:	90 91 dc 00 	lds	r25, 0x00DC
    147c:	90 ff       	sbrs	r25, 0
    147e:	14 c0       	rjmp	.+40     	; 0x14a8 <can_receive_message+0x3e>
    1480:	e1 e0       	ldi	r30, 0x01	; 1
    1482:	f0 e0       	ldi	r31, 0x00	; 0
    1484:	cd ee       	ldi	r28, 0xED	; 237
    1486:	d0 e0       	ldi	r29, 0x00	; 0
    1488:	ac ed       	ldi	r26, 0xDC	; 220
    148a:	b0 e0       	ldi	r27, 0x00	; 0
    148c:	9e 2f       	mov	r25, r30
    148e:	92 95       	swap	r25
    1490:	90 7f       	andi	r25, 0xF0	; 240
    1492:	98 83       	st	Y, r25
    1494:	2c 91       	ld	r18, X
    1496:	30 e0       	ldi	r19, 0x00	; 0
    1498:	0e 2e       	mov	r0, r30
    149a:	02 c0       	rjmp	.+4      	; 0x14a0 <can_receive_message+0x36>
    149c:	35 95       	asr	r19
    149e:	27 95       	ror	r18
    14a0:	0a 94       	dec	r0
    14a2:	e2 f7       	brpl	.-8      	; 0x149c <can_receive_message+0x32>
    14a4:	20 fd       	sbrc	r18, 0
    14a6:	57 c0       	rjmp	.+174    	; 0x1556 <can_receive_message+0xec>
    14a8:	80 91 ef 00 	lds	r24, 0x00EF
    14ac:	98 2f       	mov	r25, r24
    14ae:	9f 70       	andi	r25, 0x0F	; 15
    14b0:	99 30       	cpi	r25, 0x09	; 9
    14b2:	18 f4       	brcc	.+6      	; 0x14ba <can_receive_message+0x50>
    14b4:	eb 01       	movw	r28, r22
    14b6:	98 83       	st	Y, r25
    14b8:	03 c0       	rjmp	.+6      	; 0x14c0 <can_receive_message+0x56>
    14ba:	98 e0       	ldi	r25, 0x08	; 8
    14bc:	fb 01       	movw	r30, r22
    14be:	90 83       	st	Z, r25
    14c0:	84 fd       	sbrc	r24, 4
    14c2:	15 c0       	rjmp	.+42     	; 0x14ee <can_receive_message+0x84>
    14c4:	20 91 f3 00 	lds	r18, 0x00F3
    14c8:	80 91 f2 00 	lds	r24, 0x00F2
    14cc:	82 95       	swap	r24
    14ce:	86 95       	lsr	r24
    14d0:	87 70       	andi	r24, 0x07	; 7
    14d2:	90 e0       	ldi	r25, 0x00	; 0
    14d4:	f8 e0       	ldi	r31, 0x08	; 8
    14d6:	2f 9f       	mul	r18, r31
    14d8:	80 0d       	add	r24, r0
    14da:	91 1d       	adc	r25, r1
    14dc:	11 24       	eor	r1, r1
    14de:	a0 e0       	ldi	r26, 0x00	; 0
    14e0:	b0 e0       	ldi	r27, 0x00	; 0
    14e2:	e8 01       	movw	r28, r16
    14e4:	88 83       	st	Y, r24
    14e6:	99 83       	std	Y+1, r25	; 0x01
    14e8:	aa 83       	std	Y+2, r26	; 0x02
    14ea:	bb 83       	std	Y+3, r27	; 0x03
    14ec:	1a c0       	rjmp	.+52     	; 0x1522 <can_receive_message+0xb8>
    14ee:	20 91 f3 00 	lds	r18, 0x00F3
    14f2:	b2 2f       	mov	r27, r18
    14f4:	20 91 f2 00 	lds	r18, 0x00F2
    14f8:	a2 2f       	mov	r26, r18
    14fa:	20 91 f1 00 	lds	r18, 0x00F1
    14fe:	92 2f       	mov	r25, r18
    1500:	20 91 f0 00 	lds	r18, 0x00F0
    1504:	82 2f       	mov	r24, r18
    1506:	68 94       	set
    1508:	12 f8       	bld	r1, 2
    150a:	b6 95       	lsr	r27
    150c:	a7 95       	ror	r26
    150e:	97 95       	ror	r25
    1510:	87 95       	ror	r24
    1512:	16 94       	lsr	r1
    1514:	d1 f7       	brne	.-12     	; 0x150a <can_receive_message+0xa0>
    1516:	b0 68       	ori	r27, 0x80	; 128
    1518:	f8 01       	movw	r30, r16
    151a:	80 83       	st	Z, r24
    151c:	91 83       	std	Z+1, r25	; 0x01
    151e:	a2 83       	std	Z+2, r26	; 0x02
    1520:	b3 83       	std	Z+3, r27	; 0x03
    1522:	eb 01       	movw	r28, r22
    1524:	88 81       	ld	r24, Y
    1526:	88 23       	and	r24, r24
    1528:	69 f0       	breq	.+26     	; 0x1544 <can_receive_message+0xda>
    152a:	24 2f       	mov	r18, r20
    152c:	e4 2f       	mov	r30, r20
    152e:	f5 2f       	mov	r31, r21
    1530:	aa ef       	ldi	r26, 0xFA	; 250
    1532:	b0 e0       	ldi	r27, 0x00	; 0
    1534:	8c 91       	ld	r24, X
    1536:	81 93       	st	Z+, r24
    1538:	8e 2f       	mov	r24, r30
    153a:	82 1b       	sub	r24, r18
    153c:	eb 01       	movw	r28, r22
    153e:	98 81       	ld	r25, Y
    1540:	89 17       	cp	r24, r25
    1542:	c0 f3       	brcs	.-16     	; 0x1534 <can_receive_message+0xca>
    1544:	80 e8       	ldi	r24, 0x80	; 128
    1546:	80 93 ef 00 	sts	0x00EF, r24
    154a:	80 91 dc 00 	lds	r24, 0x00DC
    154e:	80 95       	com	r24
    1550:	8e 70       	andi	r24, 0x0E	; 14
    1552:	81 60       	ori	r24, 0x01	; 1
    1554:	06 c0       	rjmp	.+12     	; 0x1562 <can_receive_message+0xf8>
    1556:	31 96       	adiw	r30, 0x01	; 1
    1558:	e4 30       	cpi	r30, 0x04	; 4
    155a:	f1 05       	cpc	r31, r1
    155c:	09 f0       	breq	.+2      	; 0x1560 <can_receive_message+0xf6>
    155e:	96 cf       	rjmp	.-212    	; 0x148c <can_receive_message+0x22>
    1560:	80 e0       	ldi	r24, 0x00	; 0
    1562:	df 91       	pop	r29
    1564:	cf 91       	pop	r28
    1566:	1f 91       	pop	r17
    1568:	0f 91       	pop	r16
    156a:	08 95       	ret

0000156c <can_send_message>:
    156c:	8f 92       	push	r8
    156e:	9f 92       	push	r9
    1570:	af 92       	push	r10
    1572:	bf 92       	push	r11
    1574:	cf 92       	push	r12
    1576:	df 92       	push	r13
    1578:	ef 92       	push	r14
    157a:	ff 92       	push	r15
    157c:	0f 93       	push	r16
    157e:	1f 93       	push	r17
    1580:	cf 93       	push	r28
    1582:	df 93       	push	r29
    1584:	cd b7       	in	r28, 0x3d	; 61
    1586:	de b7       	in	r29, 0x3e	; 62
    1588:	28 97       	sbiw	r28, 0x08	; 8
    158a:	0f b6       	in	r0, 0x3f	; 63
    158c:	f8 94       	cli
    158e:	de bf       	out	0x3e, r29	; 62
    1590:	0f be       	out	0x3f, r0	; 63
    1592:	cd bf       	out	0x3d, r28	; 61
    1594:	4b 01       	movw	r8, r22
    1596:	5c 01       	movw	r10, r24
    1598:	c9 82       	std	Y+1, r12	; 0x01
    159a:	da 82       	std	Y+2, r13	; 0x02
    159c:	eb 82       	std	Y+3, r14	; 0x03
    159e:	fc 82       	std	Y+4, r15	; 0x04
    15a0:	0d 83       	std	Y+5, r16	; 0x05
    15a2:	1e 83       	std	Y+6, r17	; 0x06
    15a4:	2f 83       	std	Y+7, r18	; 0x07
    15a6:	38 87       	std	Y+8, r19	; 0x08
    15a8:	80 91 dc 00 	lds	r24, 0x00DC
    15ac:	84 fd       	sbrc	r24, 4
    15ae:	04 c0       	rjmp	.+8      	; 0x15b8 <can_send_message+0x4c>
    15b0:	80 e4       	ldi	r24, 0x40	; 64
    15b2:	80 93 ed 00 	sts	0x00ED, r24
    15b6:	07 c0       	rjmp	.+14     	; 0x15c6 <can_send_message+0x5a>
    15b8:	80 91 dc 00 	lds	r24, 0x00DC
    15bc:	85 fd       	sbrc	r24, 5
    15be:	42 c0       	rjmp	.+132    	; 0x1644 <can_send_message+0xd8>
    15c0:	80 e5       	ldi	r24, 0x50	; 80
    15c2:	80 93 ed 00 	sts	0x00ED, r24
    15c6:	44 23       	and	r20, r20
    15c8:	61 f0       	breq	.+24     	; 0x15e2 <can_send_message+0x76>
    15ca:	9e 01       	movw	r18, r28
    15cc:	2f 5f       	subi	r18, 0xFF	; 255
    15ce:	3f 4f       	sbci	r19, 0xFF	; 255
    15d0:	f9 01       	movw	r30, r18
    15d2:	aa ef       	ldi	r26, 0xFA	; 250
    15d4:	b0 e0       	ldi	r27, 0x00	; 0
    15d6:	81 91       	ld	r24, Z+
    15d8:	8c 93       	st	X, r24
    15da:	8e 2f       	mov	r24, r30
    15dc:	82 1b       	sub	r24, r18
    15de:	84 17       	cp	r24, r20
    15e0:	d0 f3       	brcs	.-12     	; 0x15d6 <can_send_message+0x6a>
    15e2:	bb 20       	and	r11, r11
    15e4:	8c f0       	brlt	.+34     	; 0x1608 <can_send_message+0x9c>
    15e6:	10 92 f0 00 	sts	0x00F0, r1
    15ea:	88 0c       	add	r8, r8
    15ec:	99 1c       	adc	r9, r9
    15ee:	88 0c       	add	r8, r8
    15f0:	99 1c       	adc	r9, r9
    15f2:	88 0c       	add	r8, r8
    15f4:	99 1c       	adc	r9, r9
    15f6:	88 0c       	add	r8, r8
    15f8:	99 1c       	adc	r9, r9
    15fa:	88 0c       	add	r8, r8
    15fc:	99 1c       	adc	r9, r9
    15fe:	80 92 f2 00 	sts	0x00F2, r8
    1602:	90 92 f3 00 	sts	0x00F3, r9
    1606:	19 c0       	rjmp	.+50     	; 0x163a <can_send_message+0xce>
    1608:	88 0c       	add	r8, r8
    160a:	99 1c       	adc	r9, r9
    160c:	aa 1c       	adc	r10, r10
    160e:	bb 1c       	adc	r11, r11
    1610:	88 0c       	add	r8, r8
    1612:	99 1c       	adc	r9, r9
    1614:	aa 1c       	adc	r10, r10
    1616:	bb 1c       	adc	r11, r11
    1618:	88 0c       	add	r8, r8
    161a:	99 1c       	adc	r9, r9
    161c:	aa 1c       	adc	r10, r10
    161e:	bb 1c       	adc	r11, r11
    1620:	80 92 f0 00 	sts	0x00F0, r8
    1624:	90 92 f1 00 	sts	0x00F1, r9
    1628:	a0 92 f2 00 	sts	0x00F2, r10
    162c:	8b 2c       	mov	r8, r11
    162e:	99 24       	eor	r9, r9
    1630:	aa 24       	eor	r10, r10
    1632:	bb 24       	eor	r11, r11
    1634:	80 92 f3 00 	sts	0x00F3, r8
    1638:	40 5f       	subi	r20, 0xF0	; 240
    163a:	40 64       	ori	r20, 0x40	; 64
    163c:	40 93 ef 00 	sts	0x00EF, r20
    1640:	81 e0       	ldi	r24, 0x01	; 1
    1642:	01 c0       	rjmp	.+2      	; 0x1646 <can_send_message+0xda>
    1644:	80 e0       	ldi	r24, 0x00	; 0
    1646:	28 96       	adiw	r28, 0x08	; 8
    1648:	0f b6       	in	r0, 0x3f	; 63
    164a:	f8 94       	cli
    164c:	de bf       	out	0x3e, r29	; 62
    164e:	0f be       	out	0x3f, r0	; 63
    1650:	cd bf       	out	0x3d, r28	; 61
    1652:	df 91       	pop	r29
    1654:	cf 91       	pop	r28
    1656:	1f 91       	pop	r17
    1658:	0f 91       	pop	r16
    165a:	ff 90       	pop	r15
    165c:	ef 90       	pop	r14
    165e:	df 90       	pop	r13
    1660:	cf 90       	pop	r12
    1662:	bf 90       	pop	r11
    1664:	af 90       	pop	r10
    1666:	9f 90       	pop	r9
    1668:	8f 90       	pop	r8
    166a:	08 95       	ret

0000166c <can_task>:
    166c:	cf 92       	push	r12
    166e:	df 92       	push	r13
    1670:	ef 92       	push	r14
    1672:	ff 92       	push	r15
    1674:	0f 93       	push	r16
    1676:	1f 93       	push	r17
    1678:	cf 93       	push	r28
    167a:	df 93       	push	r29
    167c:	cd b7       	in	r28, 0x3d	; 61
    167e:	de b7       	in	r29, 0x3e	; 62
    1680:	2d 97       	sbiw	r28, 0x0d	; 13
    1682:	0f b6       	in	r0, 0x3f	; 63
    1684:	f8 94       	cli
    1686:	de bf       	out	0x3e, r29	; 62
    1688:	0f be       	out	0x3f, r0	; 63
    168a:	cd bf       	out	0x3d, r28	; 61
    168c:	40 91 6e 04 	lds	r20, 0x046E
    1690:	44 23       	and	r20, r20
    1692:	51 f1       	breq	.+84     	; 0x16e8 <can_task+0x7c>
    1694:	80 91 dc 00 	lds	r24, 0x00DC
    1698:	80 73       	andi	r24, 0x30	; 48
    169a:	80 33       	cpi	r24, 0x30	; 48
    169c:	29 f1       	breq	.+74     	; 0x16e8 <can_task+0x7c>
    169e:	80 91 28 04 	lds	r24, 0x0428
    16a2:	90 e0       	ldi	r25, 0x00	; 0
    16a4:	50 e0       	ldi	r21, 0x00	; 0
    16a6:	87 30       	cpi	r24, 0x07	; 7
    16a8:	10 f4       	brcc	.+4      	; 0x16ae <can_task+0x42>
    16aa:	8f 5f       	subi	r24, 0xFF	; 255
    16ac:	01 c0       	rjmp	.+2      	; 0x16b0 <can_task+0x44>
    16ae:	89 2f       	mov	r24, r25
    16b0:	9a 01       	movw	r18, r20
    16b2:	08 2e       	mov	r0, r24
    16b4:	02 c0       	rjmp	.+4      	; 0x16ba <can_task+0x4e>
    16b6:	35 95       	asr	r19
    16b8:	27 95       	ror	r18
    16ba:	0a 94       	dec	r0
    16bc:	e2 f7       	brpl	.-8      	; 0x16b6 <can_task+0x4a>
    16be:	20 ff       	sbrs	r18, 0
    16c0:	f2 cf       	rjmp	.-28     	; 0x16a6 <can_task+0x3a>
    16c2:	80 93 28 04 	sts	0x0428, r24
    16c6:	0e 94 87 11 	call	0x230e	; 0x230e <can_send_task>
    16ca:	81 e0       	ldi	r24, 0x01	; 1
    16cc:	90 e0       	ldi	r25, 0x00	; 0
    16ce:	00 90 28 04 	lds	r0, 0x0428
    16d2:	02 c0       	rjmp	.+4      	; 0x16d8 <can_task+0x6c>
    16d4:	88 0f       	add	r24, r24
    16d6:	99 1f       	adc	r25, r25
    16d8:	0a 94       	dec	r0
    16da:	e2 f7       	brpl	.-8      	; 0x16d4 <can_task+0x68>
    16dc:	80 95       	com	r24
    16de:	90 91 6e 04 	lds	r25, 0x046E
    16e2:	89 23       	and	r24, r25
    16e4:	80 93 6e 04 	sts	0x046E, r24
    16e8:	ae 01       	movw	r20, r28
    16ea:	4a 5f       	subi	r20, 0xFA	; 250
    16ec:	5f 4f       	sbci	r21, 0xFF	; 255
    16ee:	be 01       	movw	r22, r28
    16f0:	6b 5f       	subi	r22, 0xFB	; 251
    16f2:	7f 4f       	sbci	r23, 0xFF	; 255
    16f4:	ce 01       	movw	r24, r28
    16f6:	01 96       	adiw	r24, 0x01	; 1
    16f8:	0e 94 35 0a 	call	0x146a	; 0x146a <can_receive_message>
    16fc:	88 23       	and	r24, r24
    16fe:	79 f0       	breq	.+30     	; 0x171e <can_task+0xb2>
    1700:	c9 80       	ldd	r12, Y+1	; 0x01
    1702:	da 80       	ldd	r13, Y+2	; 0x02
    1704:	eb 80       	ldd	r14, Y+3	; 0x03
    1706:	fc 80       	ldd	r15, Y+4	; 0x04
    1708:	0d 81       	ldd	r16, Y+5	; 0x05
    170a:	1e 81       	ldd	r17, Y+6	; 0x06
    170c:	2f 81       	ldd	r18, Y+7	; 0x07
    170e:	38 85       	ldd	r19, Y+8	; 0x08
    1710:	49 85       	ldd	r20, Y+9	; 0x09
    1712:	5a 85       	ldd	r21, Y+10	; 0x0a
    1714:	6b 85       	ldd	r22, Y+11	; 0x0b
    1716:	7c 85       	ldd	r23, Y+12	; 0x0c
    1718:	8d 85       	ldd	r24, Y+13	; 0x0d
    171a:	0e 94 d3 10 	call	0x21a6	; 0x21a6 <can_receive_task>
    171e:	2d 96       	adiw	r28, 0x0d	; 13
    1720:	0f b6       	in	r0, 0x3f	; 63
    1722:	f8 94       	cli
    1724:	de bf       	out	0x3e, r29	; 62
    1726:	0f be       	out	0x3f, r0	; 63
    1728:	cd bf       	out	0x3d, r28	; 61
    172a:	df 91       	pop	r29
    172c:	cf 91       	pop	r28
    172e:	1f 91       	pop	r17
    1730:	0f 91       	pop	r16
    1732:	ff 90       	pop	r15
    1734:	ef 90       	pop	r14
    1736:	df 90       	pop	r13
    1738:	cf 90       	pop	r12
    173a:	08 95       	ret

0000173c <digital_output_init>:
    173c:	90 e0       	ldi	r25, 0x00	; 0
    173e:	fc 01       	movw	r30, r24
    1740:	e5 56       	subi	r30, 0x65	; 101
    1742:	f1 09       	sbc	r31, r1
    1744:	ef 36       	cpi	r30, 0x6F	; 111
    1746:	f1 05       	cpc	r31, r1
    1748:	88 f5       	brcc	.+98     	; 0x17ac <digital_output_init+0x70>
    174a:	e2 5c       	subi	r30, 0xC2	; 194
    174c:	ff 4f       	sbci	r31, 0xFF	; 255
    174e:	0c 94 43 12 	jmp	0x2486	; 0x2486 <__tablejump2__>
    1752:	50 9a       	sbi	0x0a, 0	; 10
    1754:	08 95       	ret
    1756:	38 9a       	sbi	0x07, 0	; 7
    1758:	08 95       	ret
    175a:	52 9a       	sbi	0x0a, 2	; 10
    175c:	08 95       	ret
    175e:	39 9a       	sbi	0x07, 1	; 7
    1760:	08 95       	ret
    1762:	26 9a       	sbi	0x04, 6	; 4
    1764:	08 95       	ret
    1766:	53 9a       	sbi	0x0a, 3	; 10
    1768:	08 95       	ret
    176a:	20 9a       	sbi	0x04, 0	; 4
    176c:	08 95       	ret
    176e:	21 9a       	sbi	0x04, 1	; 4
    1770:	08 95       	ret
    1772:	27 9a       	sbi	0x04, 7	; 4
    1774:	08 95       	ret
    1776:	54 9a       	sbi	0x0a, 4	; 10
    1778:	08 95       	ret
    177a:	6a 9a       	sbi	0x0d, 2	; 13
    177c:	08 95       	ret
    177e:	55 9a       	sbi	0x0a, 5	; 10
    1780:	08 95       	ret
    1782:	56 9a       	sbi	0x0a, 6	; 10
    1784:	08 95       	ret
    1786:	22 9a       	sbi	0x04, 2	; 4
    1788:	08 95       	ret
    178a:	3c 9a       	sbi	0x07, 4	; 7
    178c:	08 95       	ret
    178e:	3d 9a       	sbi	0x07, 5	; 7
    1790:	08 95       	ret
    1792:	3e 9a       	sbi	0x07, 6	; 7
    1794:	08 95       	ret
    1796:	25 9a       	sbi	0x04, 5	; 4
    1798:	08 95       	ret
    179a:	3f 9a       	sbi	0x07, 7	; 7
    179c:	08 95       	ret
    179e:	24 9a       	sbi	0x04, 4	; 4
    17a0:	08 95       	ret
    17a2:	23 9a       	sbi	0x04, 3	; 4
    17a4:	08 95       	ret
    17a6:	51 9a       	sbi	0x0a, 1	; 10
    17a8:	08 95       	ret
    17aa:	57 9a       	sbi	0x0a, 7	; 10
    17ac:	08 95       	ret

000017ae <LM95071_init>:
    17ae:	83 e7       	ldi	r24, 0x73	; 115
    17b0:	0e 94 9e 0b 	call	0x173c	; 0x173c <digital_output_init>
    17b4:	5f 9a       	sbi	0x0b, 7	; 11
    17b6:	08 95       	ret

000017b8 <LM95071_task>:
    17b8:	80 91 2d 04 	lds	r24, 0x042D
    17bc:	90 91 2e 04 	lds	r25, 0x042E
    17c0:	89 2b       	or	r24, r25
    17c2:	b9 f1       	breq	.+110    	; 0x1832 <LM95071_task+0x7a>
    17c4:	80 91 2b 04 	lds	r24, 0x042B
    17c8:	90 91 2c 04 	lds	r25, 0x042C
    17cc:	89 2b       	or	r24, r25
    17ce:	d9 f0       	breq	.+54     	; 0x1806 <LM95071_task+0x4e>
    17d0:	80 91 92 04 	lds	r24, 0x0492
    17d4:	88 23       	and	r24, r24
    17d6:	69 f1       	breq	.+90     	; 0x1832 <LM95071_task+0x7a>
    17d8:	5f 9a       	sbi	0x0b, 7	; 11
    17da:	ef e6       	ldi	r30, 0x6F	; 111
    17dc:	f4 e0       	ldi	r31, 0x04	; 4
    17de:	12 a2       	std	Z+34, r1	; 0x22
    17e0:	80 89       	ldd	r24, Z+16	; 0x10
    17e2:	91 89       	ldd	r25, Z+17	; 0x11
    17e4:	96 95       	lsr	r25
    17e6:	87 95       	ror	r24
    17e8:	96 95       	lsr	r25
    17ea:	87 95       	ror	r24
    17ec:	90 93 2a 04 	sts	0x042A, r25
    17f0:	80 93 29 04 	sts	0x0429, r24
    17f4:	10 92 2c 04 	sts	0x042C, r1
    17f8:	10 92 2b 04 	sts	0x042B, r1
    17fc:	10 92 2e 04 	sts	0x042E, r1
    1800:	10 92 2d 04 	sts	0x042D, r1
    1804:	08 95       	ret
    1806:	80 91 91 04 	lds	r24, 0x0491
    180a:	81 11       	cpse	r24, r1
    180c:	12 c0       	rjmp	.+36     	; 0x1832 <LM95071_task+0x7a>
    180e:	8c b5       	in	r24, 0x2c	; 44
    1810:	83 7f       	andi	r24, 0xF3	; 243
    1812:	8c bd       	out	0x2c, r24	; 44
    1814:	ef e6       	ldi	r30, 0x6F	; 111
    1816:	f4 e0       	ldi	r31, 0x04	; 4
    1818:	11 82       	std	Z+1, r1	; 0x01
    181a:	10 82       	st	Z, r1
    181c:	82 e0       	ldi	r24, 0x02	; 2
    181e:	80 a3       	std	Z+32, r24	; 0x20
    1820:	5f 98       	cbi	0x0b, 7	; 11
    1822:	0e 94 5d 0c 	call	0x18ba	; 0x18ba <spi_start_transmission>
    1826:	81 e0       	ldi	r24, 0x01	; 1
    1828:	90 e0       	ldi	r25, 0x00	; 0
    182a:	90 93 2c 04 	sts	0x042C, r25
    182e:	80 93 2b 04 	sts	0x042B, r24
    1832:	08 95       	ret

00001834 <spi_init_master>:
    1834:	94 b1       	in	r25, 0x04	; 4
    1836:	92 68       	ori	r25, 0x82	; 130
    1838:	94 b9       	out	0x04, r25	; 4
    183a:	53 9a       	sbi	0x0a, 3	; 10
    183c:	80 31       	cpi	r24, 0x10	; 16
    183e:	09 f1       	breq	.+66     	; 0x1882 <spi_init_master+0x4e>
    1840:	38 f4       	brcc	.+14     	; 0x1850 <spi_init_master+0x1c>
    1842:	84 30       	cpi	r24, 0x04	; 4
    1844:	91 f0       	breq	.+36     	; 0x186a <spi_init_master+0x36>
    1846:	88 30       	cpi	r24, 0x08	; 8
    1848:	b1 f0       	breq	.+44     	; 0x1876 <spi_init_master+0x42>
    184a:	82 30       	cpi	r24, 0x02	; 2
    184c:	89 f5       	brne	.+98     	; 0x18b0 <spi_init_master+0x7c>
    184e:	07 c0       	rjmp	.+14     	; 0x185e <spi_init_master+0x2a>
    1850:	80 34       	cpi	r24, 0x40	; 64
    1852:	19 f1       	breq	.+70     	; 0x189a <spi_init_master+0x66>
    1854:	80 38       	cpi	r24, 0x80	; 128
    1856:	39 f1       	breq	.+78     	; 0x18a6 <spi_init_master+0x72>
    1858:	80 32       	cpi	r24, 0x20	; 32
    185a:	51 f5       	brne	.+84     	; 0x18b0 <spi_init_master+0x7c>
    185c:	18 c0       	rjmp	.+48     	; 0x188e <spi_init_master+0x5a>
    185e:	8d b5       	in	r24, 0x2d	; 45
    1860:	81 60       	ori	r24, 0x01	; 1
    1862:	8d bd       	out	0x2d, r24	; 45
    1864:	80 e5       	ldi	r24, 0x50	; 80
    1866:	8c bd       	out	0x2c, r24	; 44
    1868:	23 c0       	rjmp	.+70     	; 0x18b0 <spi_init_master+0x7c>
    186a:	8d b5       	in	r24, 0x2d	; 45
    186c:	8e 7f       	andi	r24, 0xFE	; 254
    186e:	8d bd       	out	0x2d, r24	; 45
    1870:	80 e5       	ldi	r24, 0x50	; 80
    1872:	8c bd       	out	0x2c, r24	; 44
    1874:	1d c0       	rjmp	.+58     	; 0x18b0 <spi_init_master+0x7c>
    1876:	8d b5       	in	r24, 0x2d	; 45
    1878:	81 60       	ori	r24, 0x01	; 1
    187a:	8d bd       	out	0x2d, r24	; 45
    187c:	81 e5       	ldi	r24, 0x51	; 81
    187e:	8c bd       	out	0x2c, r24	; 44
    1880:	17 c0       	rjmp	.+46     	; 0x18b0 <spi_init_master+0x7c>
    1882:	8d b5       	in	r24, 0x2d	; 45
    1884:	8e 7f       	andi	r24, 0xFE	; 254
    1886:	8d bd       	out	0x2d, r24	; 45
    1888:	81 e5       	ldi	r24, 0x51	; 81
    188a:	8c bd       	out	0x2c, r24	; 44
    188c:	11 c0       	rjmp	.+34     	; 0x18b0 <spi_init_master+0x7c>
    188e:	8d b5       	in	r24, 0x2d	; 45
    1890:	81 60       	ori	r24, 0x01	; 1
    1892:	8d bd       	out	0x2d, r24	; 45
    1894:	82 e5       	ldi	r24, 0x52	; 82
    1896:	8c bd       	out	0x2c, r24	; 44
    1898:	0b c0       	rjmp	.+22     	; 0x18b0 <spi_init_master+0x7c>
    189a:	8d b5       	in	r24, 0x2d	; 45
    189c:	8e 7f       	andi	r24, 0xFE	; 254
    189e:	8d bd       	out	0x2d, r24	; 45
    18a0:	82 e5       	ldi	r24, 0x52	; 82
    18a2:	8c bd       	out	0x2c, r24	; 44
    18a4:	05 c0       	rjmp	.+10     	; 0x18b0 <spi_init_master+0x7c>
    18a6:	8d b5       	in	r24, 0x2d	; 45
    18a8:	8e 7f       	andi	r24, 0xFE	; 254
    18aa:	8d bd       	out	0x2d, r24	; 45
    18ac:	83 e5       	ldi	r24, 0x53	; 83
    18ae:	8c bd       	out	0x2c, r24	; 44
    18b0:	8c b5       	in	r24, 0x2c	; 44
    18b2:	80 68       	ori	r24, 0x80	; 128
    18b4:	8c bd       	out	0x2c, r24	; 44
    18b6:	78 94       	sei
    18b8:	08 95       	ret

000018ba <spi_start_transmission>:
    18ba:	80 91 91 04 	lds	r24, 0x0491
    18be:	81 11       	cpse	r24, r1
    18c0:	11 c0       	rjmp	.+34     	; 0x18e4 <spi_start_transmission+0x2a>
    18c2:	ef e6       	ldi	r30, 0x6F	; 111
    18c4:	f4 e0       	ldi	r31, 0x04	; 4
    18c6:	13 a2       	std	Z+35, r1	; 0x23
    18c8:	81 e0       	ldi	r24, 0x01	; 1
    18ca:	82 a3       	std	Z+34, r24	; 0x22
    18cc:	81 a3       	std	Z+33, r24	; 0x21
    18ce:	80 a1       	ldd	r24, Z+32	; 0x20
    18d0:	81 31       	cpi	r24, 0x11	; 17
    18d2:	18 f0       	brcs	.+6      	; 0x18da <spi_start_transmission+0x20>
    18d4:	80 e1       	ldi	r24, 0x10	; 16
    18d6:	80 93 8f 04 	sts	0x048F, r24
    18da:	80 91 6f 04 	lds	r24, 0x046F
    18de:	8e bd       	out	0x2e, r24	; 46
    18e0:	81 e0       	ldi	r24, 0x01	; 1
    18e2:	08 95       	ret
    18e4:	80 e0       	ldi	r24, 0x00	; 0
    18e6:	08 95       	ret

000018e8 <spi_task>:
    18e8:	0d b4       	in	r0, 0x2d	; 45
    18ea:	07 fe       	sbrs	r0, 7
    18ec:	22 c0       	rjmp	.+68     	; 0x1932 <spi_task+0x4a>
    18ee:	af e6       	ldi	r26, 0x6F	; 111
    18f0:	b4 e0       	ldi	r27, 0x04	; 4
    18f2:	91 96       	adiw	r26, 0x21	; 33
    18f4:	ec 91       	ld	r30, X
    18f6:	91 97       	sbiw	r26, 0x21	; 33
    18f8:	f0 e0       	ldi	r31, 0x00	; 0
    18fa:	8e b5       	in	r24, 0x2e	; 46
    18fc:	e2 59       	subi	r30, 0x92	; 146
    18fe:	fb 4f       	sbci	r31, 0xFB	; 251
    1900:	80 8b       	std	Z+16, r24	; 0x10
    1902:	91 96       	adiw	r26, 0x21	; 33
    1904:	9c 91       	ld	r25, X
    1906:	91 97       	sbiw	r26, 0x21	; 33
    1908:	90 96       	adiw	r26, 0x20	; 32
    190a:	8c 91       	ld	r24, X
    190c:	90 97       	sbiw	r26, 0x20	; 32
    190e:	98 17       	cp	r25, r24
    1910:	60 f4       	brcc	.+24     	; 0x192a <spi_task+0x42>
    1912:	fd 01       	movw	r30, r26
    1914:	81 a1       	ldd	r24, Z+33	; 0x21
    1916:	8f 5f       	subi	r24, 0xFF	; 255
    1918:	81 a3       	std	Z+33, r24	; 0x21
    191a:	e1 a1       	ldd	r30, Z+33	; 0x21
    191c:	f0 e0       	ldi	r31, 0x00	; 0
    191e:	e2 59       	subi	r30, 0x92	; 146
    1920:	fb 4f       	sbci	r31, 0xFB	; 251
    1922:	80 81       	ld	r24, Z
    1924:	8e bd       	out	0x2e, r24	; 46
    1926:	80 e0       	ldi	r24, 0x00	; 0
    1928:	08 95       	ret
    192a:	81 e0       	ldi	r24, 0x01	; 1
    192c:	80 93 92 04 	sts	0x0492, r24
    1930:	08 95       	ret
    1932:	80 e0       	ldi	r24, 0x00	; 0
    1934:	08 95       	ret

00001936 <__vector_26>:
    1936:	1f 92       	push	r1
    1938:	0f 92       	push	r0
    193a:	0f b6       	in	r0, 0x3f	; 63
    193c:	0f 92       	push	r0
    193e:	11 24       	eor	r1, r1
    1940:	8f 93       	push	r24
    1942:	9f 93       	push	r25
    1944:	af 93       	push	r26
    1946:	bf 93       	push	r27
    1948:	ef 93       	push	r30
    194a:	ff 93       	push	r31
    194c:	af e6       	ldi	r26, 0x6F	; 111
    194e:	b4 e0       	ldi	r27, 0x04	; 4
    1950:	91 96       	adiw	r26, 0x21	; 33
    1952:	ec 91       	ld	r30, X
    1954:	91 97       	sbiw	r26, 0x21	; 33
    1956:	f0 e0       	ldi	r31, 0x00	; 0
    1958:	8e b5       	in	r24, 0x2e	; 46
    195a:	e2 59       	subi	r30, 0x92	; 146
    195c:	fb 4f       	sbci	r31, 0xFB	; 251
    195e:	80 8b       	std	Z+16, r24	; 0x10
    1960:	91 96       	adiw	r26, 0x21	; 33
    1962:	9c 91       	ld	r25, X
    1964:	91 97       	sbiw	r26, 0x21	; 33
    1966:	90 96       	adiw	r26, 0x20	; 32
    1968:	8c 91       	ld	r24, X
    196a:	90 97       	sbiw	r26, 0x20	; 32
    196c:	98 17       	cp	r25, r24
    196e:	58 f4       	brcc	.+22     	; 0x1986 <__vector_26+0x50>
    1970:	fd 01       	movw	r30, r26
    1972:	81 a1       	ldd	r24, Z+33	; 0x21
    1974:	8f 5f       	subi	r24, 0xFF	; 255
    1976:	81 a3       	std	Z+33, r24	; 0x21
    1978:	e1 a1       	ldd	r30, Z+33	; 0x21
    197a:	f0 e0       	ldi	r31, 0x00	; 0
    197c:	e2 59       	subi	r30, 0x92	; 146
    197e:	fb 4f       	sbci	r31, 0xFB	; 251
    1980:	80 81       	ld	r24, Z
    1982:	8e bd       	out	0x2e, r24	; 46
    1984:	03 c0       	rjmp	.+6      	; 0x198c <__vector_26+0x56>
    1986:	81 e0       	ldi	r24, 0x01	; 1
    1988:	80 93 92 04 	sts	0x0492, r24
    198c:	ff 91       	pop	r31
    198e:	ef 91       	pop	r30
    1990:	bf 91       	pop	r27
    1992:	af 91       	pop	r26
    1994:	9f 91       	pop	r25
    1996:	8f 91       	pop	r24
    1998:	0f 90       	pop	r0
    199a:	0f be       	out	0x3f, r0	; 63
    199c:	0f 90       	pop	r0
    199e:	1f 90       	pop	r1
    19a0:	18 95       	reti

000019a2 <timer_init>:
    19a2:	e0 e8       	ldi	r30, 0x80	; 128
    19a4:	f0 e0       	ldi	r31, 0x00	; 0
    19a6:	80 81       	ld	r24, Z
    19a8:	82 60       	ori	r24, 0x02	; 2
    19aa:	80 83       	st	Z, r24
    19ac:	e1 e8       	ldi	r30, 0x81	; 129
    19ae:	f0 e0       	ldi	r31, 0x00	; 0
    19b0:	80 81       	ld	r24, Z
    19b2:	8a 61       	ori	r24, 0x1A	; 26
    19b4:	80 83       	st	Z, r24
    19b6:	80 ed       	ldi	r24, 0xD0	; 208
    19b8:	97 e0       	ldi	r25, 0x07	; 7
    19ba:	90 93 87 00 	sts	0x0087, r25
    19be:	80 93 86 00 	sts	0x0086, r24
    19c2:	ef e6       	ldi	r30, 0x6F	; 111
    19c4:	f0 e0       	ldi	r31, 0x00	; 0
    19c6:	80 81       	ld	r24, Z
    19c8:	81 60       	ori	r24, 0x01	; 1
    19ca:	80 83       	st	Z, r24
    19cc:	78 94       	sei
    19ce:	08 95       	ret

000019d0 <__vector_14>:
    19d0:	1f 92       	push	r1
    19d2:	0f 92       	push	r0
    19d4:	0f b6       	in	r0, 0x3f	; 63
    19d6:	0f 92       	push	r0
    19d8:	11 24       	eor	r1, r1
    19da:	8f 93       	push	r24
    19dc:	9f 93       	push	r25
    19de:	af 93       	push	r26
    19e0:	bf 93       	push	r27
    19e2:	80 91 30 04 	lds	r24, 0x0430
    19e6:	90 91 31 04 	lds	r25, 0x0431
    19ea:	a0 91 32 04 	lds	r26, 0x0432
    19ee:	b0 91 33 04 	lds	r27, 0x0433
    19f2:	01 96       	adiw	r24, 0x01	; 1
    19f4:	a1 1d       	adc	r26, r1
    19f6:	b1 1d       	adc	r27, r1
    19f8:	80 93 30 04 	sts	0x0430, r24
    19fc:	90 93 31 04 	sts	0x0431, r25
    1a00:	a0 93 32 04 	sts	0x0432, r26
    1a04:	b0 93 33 04 	sts	0x0433, r27
    1a08:	81 e0       	ldi	r24, 0x01	; 1
    1a0a:	80 93 2f 04 	sts	0x042F, r24
    1a0e:	bf 91       	pop	r27
    1a10:	af 91       	pop	r26
    1a12:	9f 91       	pop	r25
    1a14:	8f 91       	pop	r24
    1a16:	0f 90       	pop	r0
    1a18:	0f be       	out	0x3f, r0	; 63
    1a1a:	0f 90       	pop	r0
    1a1c:	1f 90       	pop	r1
    1a1e:	18 95       	reti

00001a20 <timer_task>:
    1a20:	80 91 2f 04 	lds	r24, 0x042F
    1a24:	81 30       	cpi	r24, 0x01	; 1
    1a26:	09 f0       	breq	.+2      	; 0x1a2a <timer_task+0xa>
    1a28:	4d c0       	rjmp	.+154    	; 0x1ac4 <timer_task+0xa4>
    1a2a:	10 92 2f 04 	sts	0x042F, r1
    1a2e:	0e 94 10 0f 	call	0x1e20	; 0x1e20 <timer_1ms_task>
    1a32:	80 91 03 01 	lds	r24, 0x0103
    1a36:	90 91 04 01 	lds	r25, 0x0104
    1a3a:	88 3e       	cpi	r24, 0xE8	; 232
    1a3c:	23 e0       	ldi	r18, 0x03	; 3
    1a3e:	92 07       	cpc	r25, r18
    1a40:	30 f4       	brcc	.+12     	; 0x1a4e <timer_task+0x2e>
    1a42:	01 96       	adiw	r24, 0x01	; 1
    1a44:	90 93 04 01 	sts	0x0104, r25
    1a48:	80 93 03 01 	sts	0x0103, r24
    1a4c:	08 c0       	rjmp	.+16     	; 0x1a5e <timer_task+0x3e>
    1a4e:	0e 94 d1 10 	call	0x21a2	; 0x21a2 <timer_1s_task>
    1a52:	81 e0       	ldi	r24, 0x01	; 1
    1a54:	90 e0       	ldi	r25, 0x00	; 0
    1a56:	90 93 04 01 	sts	0x0104, r25
    1a5a:	80 93 03 01 	sts	0x0103, r24
    1a5e:	80 91 02 01 	lds	r24, 0x0102
    1a62:	85 30       	cpi	r24, 0x05	; 5
    1a64:	20 f4       	brcc	.+8      	; 0x1a6e <timer_task+0x4e>
    1a66:	8f 5f       	subi	r24, 0xFF	; 255
    1a68:	80 93 02 01 	sts	0x0102, r24
    1a6c:	08 95       	ret
    1a6e:	81 e0       	ldi	r24, 0x01	; 1
    1a70:	80 93 02 01 	sts	0x0102, r24
    1a74:	0e 94 11 0f 	call	0x1e22	; 0x1e22 <timer_5ms_task>
    1a78:	80 91 03 01 	lds	r24, 0x0103
    1a7c:	80 fd       	sbrc	r24, 0
    1a7e:	22 c0       	rjmp	.+68     	; 0x1ac4 <timer_task+0xa4>
    1a80:	0e 94 12 0f 	call	0x1e24	; 0x1e24 <timer_10ms_task>
    1a84:	80 91 01 01 	lds	r24, 0x0101
    1a88:	85 30       	cpi	r24, 0x05	; 5
    1a8a:	20 f4       	brcc	.+8      	; 0x1a94 <timer_task+0x74>
    1a8c:	8f 5f       	subi	r24, 0xFF	; 255
    1a8e:	80 93 01 01 	sts	0x0101, r24
    1a92:	08 95       	ret
    1a94:	81 e0       	ldi	r24, 0x01	; 1
    1a96:	80 93 01 01 	sts	0x0101, r24
    1a9a:	0e 94 13 0f 	call	0x1e26	; 0x1e26 <timer_50ms_task>
    1a9e:	80 91 03 01 	lds	r24, 0x0103
    1aa2:	81 fd       	sbrc	r24, 1
    1aa4:	0f c0       	rjmp	.+30     	; 0x1ac4 <timer_task+0xa4>
    1aa6:	0e 94 14 0f 	call	0x1e28	; 0x1e28 <timer_100ms_task>
    1aaa:	80 91 00 01 	lds	r24, 0x0100
    1aae:	85 30       	cpi	r24, 0x05	; 5
    1ab0:	20 f4       	brcc	.+8      	; 0x1aba <timer_task+0x9a>
    1ab2:	8f 5f       	subi	r24, 0xFF	; 255
    1ab4:	80 93 00 01 	sts	0x0100, r24
    1ab8:	08 95       	ret
    1aba:	81 e0       	ldi	r24, 0x01	; 1
    1abc:	80 93 00 01 	sts	0x0100, r24
    1ac0:	0e 94 15 0f 	call	0x1e2a	; 0x1e2a <timer_500ms_task>
    1ac4:	08 95       	ret

00001ac6 <main>:
    1ac6:	0e 94 d1 0c 	call	0x19a2	; 0x19a2 <timer_init>
    1aca:	0e 94 0f 0e 	call	0x1c1e	; 0x1c1e <main_init_task>
    1ace:	0e 94 dc 0b 	call	0x17b8	; 0x17b8 <LM95071_task>
    1ad2:	0e 94 74 0c 	call	0x18e8	; 0x18e8 <spi_task>
    1ad6:	0e 94 cc 00 	call	0x198	; 0x198 <adc_task>
    1ada:	0e 94 36 0b 	call	0x166c	; 0x166c <can_task>
    1ade:	0e 94 10 0d 	call	0x1a20	; 0x1a20 <timer_task>
    1ae2:	0e 94 d2 10 	call	0x21a4	; 0x21a4 <main_loop_task>
    1ae6:	f3 cf       	rjmp	.-26     	; 0x1ace <main+0x8>

00001ae8 <usart_init>:
    1ae8:	cf 93       	push	r28
    1aea:	df 93       	push	r29
    1aec:	9b 01       	movw	r18, r22
    1aee:	ac 01       	movw	r20, r24
    1af0:	c8 ec       	ldi	r28, 0xC8	; 200
    1af2:	d0 e0       	ldi	r29, 0x00	; 0
    1af4:	88 81       	ld	r24, Y
    1af6:	80 68       	ori	r24, 0x80	; 128
    1af8:	88 83       	st	Y, r24
    1afa:	60 e2       	ldi	r22, 0x20	; 32
    1afc:	71 ea       	ldi	r23, 0xA1	; 161
    1afe:	87 e0       	ldi	r24, 0x07	; 7
    1b00:	90 e0       	ldi	r25, 0x00	; 0
    1b02:	0e 94 02 12 	call	0x2404	; 0x2404 <__udivmodsi4>
    1b06:	21 50       	subi	r18, 0x01	; 1
    1b08:	31 09       	sbc	r19, r1
    1b0a:	30 93 ce 00 	sts	0x00CE, r19
    1b0e:	20 93 cd 00 	sts	0x00CD, r18
    1b12:	88 81       	ld	r24, Y
    1b14:	8f 60       	ori	r24, 0x0F	; 15
    1b16:	88 83       	st	Y, r24
    1b18:	53 9a       	sbi	0x0a, 3	; 10
    1b1a:	54 98       	cbi	0x0a, 4	; 10
    1b1c:	df 91       	pop	r29
    1b1e:	cf 91       	pop	r28
    1b20:	08 95       	ret

00001b22 <usart_transmit_char>:
    1b22:	90 91 c9 00 	lds	r25, 0x00C9
    1b26:	94 fd       	sbrc	r25, 4
    1b28:	04 c0       	rjmp	.+8      	; 0x1b32 <usart_transmit_char+0x10>
    1b2a:	80 93 d2 00 	sts	0x00D2, r24
    1b2e:	81 e0       	ldi	r24, 0x01	; 1
    1b30:	08 95       	ret
    1b32:	80 e0       	ldi	r24, 0x00	; 0
    1b34:	08 95       	ret

00001b36 <usart_transmit_string>:
    1b36:	cf 93       	push	r28
    1b38:	df 93       	push	r29
    1b3a:	ec 01       	movw	r28, r24
    1b3c:	88 81       	ld	r24, Y
    1b3e:	88 23       	and	r24, r24
    1b40:	49 f0       	breq	.+18     	; 0x1b54 <usart_transmit_string+0x1e>
    1b42:	88 81       	ld	r24, Y
    1b44:	0e 94 91 0d 	call	0x1b22	; 0x1b22 <usart_transmit_char>
    1b48:	88 23       	and	r24, r24
    1b4a:	d9 f3       	breq	.-10     	; 0x1b42 <usart_transmit_string+0xc>
    1b4c:	21 96       	adiw	r28, 0x01	; 1
    1b4e:	88 81       	ld	r24, Y
    1b50:	81 11       	cpse	r24, r1
    1b52:	f7 cf       	rjmp	.-18     	; 0x1b42 <usart_transmit_string+0xc>
    1b54:	df 91       	pop	r29
    1b56:	cf 91       	pop	r28
    1b58:	08 95       	ret

00001b5a <usart_receive>:
    1b5a:	fc 01       	movw	r30, r24
    1b5c:	90 91 c9 00 	lds	r25, 0x00C9
    1b60:	89 2f       	mov	r24, r25
    1b62:	81 70       	andi	r24, 0x01	; 1
    1b64:	90 ff       	sbrs	r25, 0
    1b66:	04 c0       	rjmp	.+8      	; 0x1b70 <usart_receive+0x16>
    1b68:	80 91 d2 00 	lds	r24, 0x00D2
    1b6c:	80 83       	st	Z, r24
    1b6e:	81 e0       	ldi	r24, 0x01	; 1
    1b70:	08 95       	ret

00001b72 <__vector_20>:
    1b72:	1f 92       	push	r1
    1b74:	0f 92       	push	r0
    1b76:	0f b6       	in	r0, 0x3f	; 63
    1b78:	0f 92       	push	r0
    1b7a:	11 24       	eor	r1, r1
    1b7c:	2f 93       	push	r18
    1b7e:	8f 93       	push	r24
    1b80:	9f 93       	push	r25
    1b82:	ef 93       	push	r30
    1b84:	ff 93       	push	r31
    1b86:	80 91 c9 00 	lds	r24, 0x00C9
    1b8a:	80 ff       	sbrs	r24, 0
    1b8c:	19 c0       	rjmp	.+50     	; 0x1bc0 <__vector_20+0x4e>
    1b8e:	e0 91 95 04 	lds	r30, 0x0495
    1b92:	f0 91 96 04 	lds	r31, 0x0496
    1b96:	80 91 d2 00 	lds	r24, 0x00D2
    1b9a:	80 83       	st	Z, r24
    1b9c:	80 91 95 04 	lds	r24, 0x0495
    1ba0:	90 91 96 04 	lds	r25, 0x0496
    1ba4:	01 96       	adiw	r24, 0x01	; 1
    1ba6:	90 93 96 04 	sts	0x0496, r25
    1baa:	80 93 95 04 	sts	0x0495, r24
    1bae:	89 5a       	subi	r24, 0xA9	; 169
    1bb0:	94 40       	sbci	r25, 0x04	; 4
    1bb2:	31 f4       	brne	.+12     	; 0x1bc0 <__vector_20+0x4e>
    1bb4:	89 e9       	ldi	r24, 0x99	; 153
    1bb6:	94 e0       	ldi	r25, 0x04	; 4
    1bb8:	90 93 96 04 	sts	0x0496, r25
    1bbc:	80 93 95 04 	sts	0x0495, r24
    1bc0:	80 91 c9 00 	lds	r24, 0x00C9
    1bc4:	81 ff       	sbrs	r24, 1
    1bc6:	21 c0       	rjmp	.+66     	; 0x1c0a <__vector_20+0x98>
    1bc8:	e0 91 97 04 	lds	r30, 0x0497
    1bcc:	f0 91 98 04 	lds	r31, 0x0498
    1bd0:	80 81       	ld	r24, Z
    1bd2:	88 23       	and	r24, r24
    1bd4:	69 f0       	breq	.+26     	; 0x1bf0 <__vector_20+0x7e>
    1bd6:	80 81       	ld	r24, Z
    1bd8:	80 93 d2 00 	sts	0x00D2, r24
    1bdc:	80 91 97 04 	lds	r24, 0x0497
    1be0:	90 91 98 04 	lds	r25, 0x0498
    1be4:	01 96       	adiw	r24, 0x01	; 1
    1be6:	90 93 98 04 	sts	0x0498, r25
    1bea:	80 93 97 04 	sts	0x0497, r24
    1bee:	0d c0       	rjmp	.+26     	; 0x1c0a <__vector_20+0x98>
    1bf0:	81 e0       	ldi	r24, 0x01	; 1
    1bf2:	80 93 05 01 	sts	0x0105, r24
    1bf6:	ea ec       	ldi	r30, 0xCA	; 202
    1bf8:	f0 e0       	ldi	r31, 0x00	; 0
    1bfa:	80 81       	ld	r24, Z
    1bfc:	8d 7f       	andi	r24, 0xFD	; 253
    1bfe:	80 83       	st	Z, r24
    1c00:	e9 ec       	ldi	r30, 0xC9	; 201
    1c02:	f0 e0       	ldi	r31, 0x00	; 0
    1c04:	80 81       	ld	r24, Z
    1c06:	82 60       	ori	r24, 0x02	; 2
    1c08:	80 83       	st	Z, r24
    1c0a:	ff 91       	pop	r31
    1c0c:	ef 91       	pop	r30
    1c0e:	9f 91       	pop	r25
    1c10:	8f 91       	pop	r24
    1c12:	2f 91       	pop	r18
    1c14:	0f 90       	pop	r0
    1c16:	0f be       	out	0x3f, r0	; 63
    1c18:	0f 90       	pop	r0
    1c1a:	1f 90       	pop	r1
    1c1c:	18 95       	reti

00001c1e <main_init_task>:

//*****************************


void main_init_task()
{
    1c1e:	4f 92       	push	r4
    1c20:	5f 92       	push	r5
    1c22:	7f 92       	push	r7
    1c24:	8f 92       	push	r8
    1c26:	af 92       	push	r10
    1c28:	bf 92       	push	r11
    1c2a:	cf 92       	push	r12
    1c2c:	df 92       	push	r13
    1c2e:	ef 92       	push	r14
    1c30:	ff 92       	push	r15
    1c32:	0f 93       	push	r16
    1c34:	1f 93       	push	r17
    1c36:	cf 93       	push	r28
	uint8_t i, j, fehler=0;		//Initialisierung
	uint32_t wait_milli;
	//insert code here
	LM95071_init();
    1c38:	0e 94 d7 0b 	call	0x17ae	; 0x17ae <LM95071_init>
	digital_output_init(SPI_CS_LTC6804_PIN);
    1c3c:	8c e6       	ldi	r24, 0x6C	; 108
    1c3e:	0e 94 9e 0b 	call	0x173c	; 0x173c <digital_output_init>
	SPI_CS_LTC6804_HIGH;
    1c42:	41 9a       	sbi	0x08, 1	; 8
	digital_output_init(S_Box_active_PIN);
    1c44:	83 ed       	ldi	r24, 0xD3	; 211
    1c46:	0e 94 9e 0b 	call	0x173c	; 0x173c <digital_output_init>
	S_Box_NOT_active;
    1c4a:	72 98       	cbi	0x0e, 2	; 14
	usart_init(115200);
    1c4c:	60 e0       	ldi	r22, 0x00	; 0
    1c4e:	72 ec       	ldi	r23, 0xC2	; 194
    1c50:	81 e0       	ldi	r24, 0x01	; 1
    1c52:	90 e0       	ldi	r25, 0x00	; 0
    1c54:	0e 94 74 0d 	call	0x1ae8	; 0x1ae8 <usart_init>
	can_init(500);						//Init CAN Bus with 500 kBit
    1c58:	84 ef       	ldi	r24, 0xF4	; 244
    1c5a:	91 e0       	ldi	r25, 0x01	; 1
    1c5c:	0e 94 94 09 	call	0x1328	; 0x1328 <can_init>
	//adc_init();
	spi_init_master(32);					//Prescaler 16 -> 1 MHz spi clock @ 16MHz cpu clock
    1c60:	80 e2       	ldi	r24, 0x20	; 32
    1c62:	0e 94 1a 0c 	call	0x1834	; 0x1834 <spi_init_master>
	SPCR |= (1 << CPOL) | (1 << CPHA);
    1c66:	8c b5       	in	r24, 0x2c	; 44
    1c68:	8c 60       	ori	r24, 0x0C	; 12
    1c6a:	8c bd       	out	0x2c, r24	; 44
	bmschip_init(UNDERVOLT, OVERVOLT);	//wird später durch eeprom-Adresse ersetzt
    1c6c:	60 e1       	ldi	r22, 0x10	; 16
    1c6e:	74 ea       	ldi	r23, 0xA4	; 164
    1c70:	88 ea       	ldi	r24, 0xA8	; 168
    1c72:	91 e6       	ldi	r25, 0x61	; 97
    1c74:	0e 94 e0 03 	call	0x7c0	; 0x7c0 <bmschip_init>
	
	for(i=1; i<5;i++)
    1c78:	c1 e0       	ldi	r28, 0x01	; 1
			usart_transmit_string("\tOvervoltage!");
			fehler++;
		}
		for(j=0; j<slave_boards;j++)
		{
			if((bms.temp.temp_transmit[j] >= OVERTEMP) && (fehler<3))
    1c7a:	0f 2e       	mov	r0, r31
    1c7c:	f6 ea       	ldi	r31, 0xA6	; 166
    1c7e:	af 2e       	mov	r10, r31
    1c80:	f6 e0       	ldi	r31, 0x06	; 6
    1c82:	bf 2e       	mov	r11, r31
    1c84:	f0 2d       	mov	r31, r0
    1c86:	0f 2e       	mov	r0, r31
    1c88:	fa ea       	ldi	r31, 0xAA	; 170
    1c8a:	4f 2e       	mov	r4, r31
    1c8c:	f6 e0       	ldi	r31, 0x06	; 6
    1c8e:	5f 2e       	mov	r5, r31
    1c90:	f0 2d       	mov	r31, r0
		if(fehler>0)
		{
			usart_transmit_string("\tFehler ");
			while(!(usart_transmit_char(48+fehler)));
			fehler = 0;
			i=0;
    1c92:	81 2c       	mov	r8, r1
		&bms.volt.min, &bms.volt.minNum, &bms.volt.avg, &bms.volt.NumOfCells);
		bmschip_getTemperature(3);			//Temp-fkt
		if(bms.volt.min<=UNDERVOLT)
		{
			usart_transmit_string("\tUndervoltage!");
			fehler++;
    1c94:	77 24       	eor	r7, r7
    1c96:	73 94       	inc	r7
	SPCR |= (1 << CPOL) | (1 << CPHA);
	bmschip_init(UNDERVOLT, OVERVOLT);	//wird später durch eeprom-Adresse ersetzt
	
	for(i=1; i<5;i++)
	{
		wait_milli = millisec_count;
    1c98:	40 91 30 04 	lds	r20, 0x0430
    1c9c:	50 91 31 04 	lds	r21, 0x0431
    1ca0:	60 91 32 04 	lds	r22, 0x0432
    1ca4:	70 91 33 04 	lds	r23, 0x0433
		while((wait_milli+200) >= millisec_count);
    1ca8:	48 53       	subi	r20, 0x38	; 56
    1caa:	5f 4f       	sbci	r21, 0xFF	; 255
    1cac:	6f 4f       	sbci	r22, 0xFF	; 255
    1cae:	7f 4f       	sbci	r23, 0xFF	; 255
    1cb0:	80 91 30 04 	lds	r24, 0x0430
    1cb4:	90 91 31 04 	lds	r25, 0x0431
    1cb8:	a0 91 32 04 	lds	r26, 0x0432
    1cbc:	b0 91 33 04 	lds	r27, 0x0433
    1cc0:	48 17       	cp	r20, r24
    1cc2:	59 07       	cpc	r21, r25
    1cc4:	6a 07       	cpc	r22, r26
    1cc6:	7b 07       	cpc	r23, r27
    1cc8:	98 f7       	brcc	.-26     	; 0x1cb0 <main_init_task+0x92>
		usart_transmit_string("\r\nTest ");
    1cca:	80 e5       	ldi	r24, 0x50	; 80
    1ccc:	93 e0       	ldi	r25, 0x03	; 3
    1cce:	0e 94 9b 0d 	call	0x1b36	; 0x1b36 <usart_transmit_string>
		while(!(usart_transmit_char(48+i)));
    1cd2:	10 e3       	ldi	r17, 0x30	; 48
    1cd4:	1c 0f       	add	r17, r28
    1cd6:	81 2f       	mov	r24, r17
    1cd8:	0e 94 91 0d 	call	0x1b22	; 0x1b22 <usart_transmit_char>
    1cdc:	88 23       	and	r24, r24
    1cde:	d9 f3       	breq	.-10     	; 0x1cd6 <main_init_task+0xb8>
		if(bmschip_getVoltages(bms.volt.val) == 1)
    1ce0:	8d ee       	ldi	r24, 0xED	; 237
    1ce2:	94 e0       	ldi	r25, 0x04	; 4
    1ce4:	0e 94 75 04 	call	0x8ea	; 0x8ea <bmschip_getVoltages>
    1ce8:	81 30       	cpi	r24, 0x01	; 1
    1cea:	31 f4       	brne	.+12     	; 0x1cf8 <main_init_task+0xda>
		{
			usart_transmit_string("\t\tPEC-Fehler");
    1cec:	88 e5       	ldi	r24, 0x58	; 88
    1cee:	93 e0       	ldi	r25, 0x03	; 3
    1cf0:	0e 94 9b 0d 	call	0x1b36	; 0x1b36 <usart_transmit_string>
	//adc_init();
	spi_init_master(32);					//Prescaler 16 -> 1 MHz spi clock @ 16MHz cpu clock
	SPCR |= (1 << CPOL) | (1 << CPHA);
	bmschip_init(UNDERVOLT, OVERVOLT);	//wird später durch eeprom-Adresse ersetzt
	
	for(i=1; i<5;i++)
    1cf4:	c7 2d       	mov	r28, r7
    1cf6:	d0 cf       	rjmp	.-96     	; 0x1c98 <main_init_task+0x7a>
		{
			usart_transmit_string("\t\tPEC-Fehler");
			i=0;
			continue;
		}
		bmschip_evaluate(bms.volt.val, &bms.volt.max, &bms.volt.maxNum,
    1cf8:	0f 2e       	mov	r0, r31
    1cfa:	f5 e7       	ldi	r31, 0x75	; 117
    1cfc:	cf 2e       	mov	r12, r31
    1cfe:	f6 e0       	ldi	r31, 0x06	; 6
    1d00:	df 2e       	mov	r13, r31
    1d02:	f0 2d       	mov	r31, r0
    1d04:	0f 2e       	mov	r0, r31
    1d06:	f1 e7       	ldi	r31, 0x71	; 113
    1d08:	ef 2e       	mov	r14, r31
    1d0a:	f6 e0       	ldi	r31, 0x06	; 6
    1d0c:	ff 2e       	mov	r15, r31
    1d0e:	f0 2d       	mov	r31, r0
    1d10:	04 e7       	ldi	r16, 0x74	; 116
    1d12:	16 e0       	ldi	r17, 0x06	; 6
    1d14:	2f e6       	ldi	r18, 0x6F	; 111
    1d16:	36 e0       	ldi	r19, 0x06	; 6
    1d18:	43 e7       	ldi	r20, 0x73	; 115
    1d1a:	56 e0       	ldi	r21, 0x06	; 6
    1d1c:	6d e6       	ldi	r22, 0x6D	; 109
    1d1e:	76 e0       	ldi	r23, 0x06	; 6
    1d20:	8d ee       	ldi	r24, 0xED	; 237
    1d22:	94 e0       	ldi	r25, 0x04	; 4
    1d24:	0e 94 8e 05 	call	0xb1c	; 0xb1c <bmschip_evaluate>
		&bms.volt.min, &bms.volt.minNum, &bms.volt.avg, &bms.volt.NumOfCells);
		bmschip_getTemperature(3);			//Temp-fkt
    1d28:	83 e0       	ldi	r24, 0x03	; 3
    1d2a:	0e 94 10 07 	call	0xe20	; 0xe20 <bmschip_getTemperature>
		if(bms.volt.min<=UNDERVOLT)
    1d2e:	80 91 6f 06 	lds	r24, 0x066F
    1d32:	90 91 70 06 	lds	r25, 0x0670
    1d36:	89 3a       	cpi	r24, 0xA9	; 169
    1d38:	91 46       	sbci	r25, 0x61	; 97
    1d3a:	30 f4       	brcc	.+12     	; 0x1d48 <main_init_task+0x12a>
		{
			usart_transmit_string("\tUndervoltage!");
    1d3c:	85 e6       	ldi	r24, 0x65	; 101
    1d3e:	93 e0       	ldi	r25, 0x03	; 3
    1d40:	0e 94 9b 0d 	call	0x1b36	; 0x1b36 <usart_transmit_string>
			fehler++;
    1d44:	17 2d       	mov	r17, r7
    1d46:	01 c0       	rjmp	.+2      	; 0x1d4a <main_init_task+0x12c>
    1d48:	18 2d       	mov	r17, r8
		}
		if(bms.volt.max>=OVERVOLT)
    1d4a:	80 91 6d 06 	lds	r24, 0x066D
    1d4e:	90 91 6e 06 	lds	r25, 0x066E
    1d52:	80 31       	cpi	r24, 0x10	; 16
    1d54:	94 4a       	sbci	r25, 0xA4	; 164
    1d56:	c8 f1       	brcs	.+114    	; 0x1dca <main_init_task+0x1ac>
		{
			usart_transmit_string("\tOvervoltage!");
    1d58:	84 e7       	ldi	r24, 0x74	; 116
    1d5a:	93 e0       	ldi	r25, 0x03	; 3
    1d5c:	0e 94 9b 0d 	call	0x1b36	; 0x1b36 <usart_transmit_string>
			fehler++;
    1d60:	1f 5f       	subi	r17, 0xFF	; 255
    1d62:	33 c0       	rjmp	.+102    	; 0x1dca <main_init_task+0x1ac>
		}
		for(j=0; j<slave_boards;j++)
		{
			if((bms.temp.temp_transmit[j] >= OVERTEMP) && (fehler<3))
    1d64:	13 30       	cpi	r17, 0x03	; 3
    1d66:	28 f4       	brcc	.+10     	; 0x1d72 <main_init_task+0x154>
			{
				usart_transmit_string("\tOvertemp!");
    1d68:	82 e8       	ldi	r24, 0x82	; 130
    1d6a:	93 e0       	ldi	r25, 0x03	; 3
    1d6c:	0e 94 9b 0d 	call	0x1b36	; 0x1b36 <usart_transmit_string>
				fehler++;
    1d70:	1f 5f       	subi	r17, 0xFF	; 255
			}
		}
		
		if(fehler>0)
    1d72:	11 23       	and	r17, r17
    1d74:	59 f0       	breq	.+22     	; 0x1d8c <main_init_task+0x16e>
		{
			usart_transmit_string("\tFehler ");
    1d76:	8d e8       	ldi	r24, 0x8D	; 141
    1d78:	93 e0       	ldi	r25, 0x03	; 3
    1d7a:	0e 94 9b 0d 	call	0x1b36	; 0x1b36 <usart_transmit_string>
			while(!(usart_transmit_char(48+fehler)));
    1d7e:	10 5d       	subi	r17, 0xD0	; 208
    1d80:	81 2f       	mov	r24, r17
    1d82:	0e 94 91 0d 	call	0x1b22	; 0x1b22 <usart_transmit_char>
    1d86:	88 23       	and	r24, r24
    1d88:	d9 f3       	breq	.-10     	; 0x1d80 <main_init_task+0x162>
			fehler = 0;
			i=0;
    1d8a:	c8 2d       	mov	r28, r8
		}	
		wait_milli = millisec_count;
    1d8c:	40 91 30 04 	lds	r20, 0x0430
    1d90:	50 91 31 04 	lds	r21, 0x0431
    1d94:	60 91 32 04 	lds	r22, 0x0432
    1d98:	70 91 33 04 	lds	r23, 0x0433
		while((wait_milli+1000) >= millisec_count);
    1d9c:	48 51       	subi	r20, 0x18	; 24
    1d9e:	5c 4f       	sbci	r21, 0xFC	; 252
    1da0:	6f 4f       	sbci	r22, 0xFF	; 255
    1da2:	7f 4f       	sbci	r23, 0xFF	; 255
    1da4:	80 91 30 04 	lds	r24, 0x0430
    1da8:	90 91 31 04 	lds	r25, 0x0431
    1dac:	a0 91 32 04 	lds	r26, 0x0432
    1db0:	b0 91 33 04 	lds	r27, 0x0433
    1db4:	48 17       	cp	r20, r24
    1db6:	59 07       	cpc	r21, r25
    1db8:	6a 07       	cpc	r22, r26
    1dba:	7b 07       	cpc	r23, r27
    1dbc:	98 f7       	brcc	.-26     	; 0x1da4 <main_init_task+0x186>
	//adc_init();
	spi_init_master(32);					//Prescaler 16 -> 1 MHz spi clock @ 16MHz cpu clock
	SPCR |= (1 << CPOL) | (1 << CPHA);
	bmschip_init(UNDERVOLT, OVERVOLT);	//wird später durch eeprom-Adresse ersetzt
	
	for(i=1; i<5;i++)
    1dbe:	cf 5f       	subi	r28, 0xFF	; 255
    1dc0:	c5 30       	cpi	r28, 0x05	; 5
    1dc2:	08 f4       	brcc	.+2      	; 0x1dc6 <main_init_task+0x1a8>
    1dc4:	69 cf       	rjmp	.-302    	; 0x1c98 <main_init_task+0x7a>
			i=0;
		}	
		wait_milli = millisec_count;
		while((wait_milli+1000) >= millisec_count);
	}
	S_Box_active;
    1dc6:	72 9a       	sbi	0x0e, 2	; 14
    1dc8:	1d c0       	rjmp	.+58     	; 0x1e04 <main_init_task+0x1e6>
			usart_transmit_string("\tOvervoltage!");
			fehler++;
		}
		for(j=0; j<slave_boards;j++)
		{
			if((bms.temp.temp_transmit[j] >= OVERTEMP) && (fehler<3))
    1dca:	f5 01       	movw	r30, r10
    1dcc:	80 81       	ld	r24, Z
    1dce:	91 81       	ldd	r25, Z+1	; 0x01
    1dd0:	a2 81       	ldd	r26, Z+2	; 0x02
    1dd2:	b3 81       	ldd	r27, Z+3	; 0x03
    1dd4:	80 37       	cpi	r24, 0x70	; 112
    1dd6:	97 41       	sbci	r25, 0x17	; 23
    1dd8:	a1 05       	cpc	r26, r1
    1dda:	b1 05       	cpc	r27, r1
    1ddc:	3c f0       	brlt	.+14     	; 0x1dec <main_init_task+0x1ce>
    1dde:	13 30       	cpi	r17, 0x03	; 3
    1de0:	40 f6       	brcc	.-112    	; 0x1d72 <main_init_task+0x154>
			{
				usart_transmit_string("\tOvertemp!");
    1de2:	82 e8       	ldi	r24, 0x82	; 130
    1de4:	93 e0       	ldi	r25, 0x03	; 3
    1de6:	0e 94 9b 0d 	call	0x1b36	; 0x1b36 <usart_transmit_string>
				fehler++;
    1dea:	1f 5f       	subi	r17, 0xFF	; 255
			usart_transmit_string("\tOvervoltage!");
			fehler++;
		}
		for(j=0; j<slave_boards;j++)
		{
			if((bms.temp.temp_transmit[j] >= OVERTEMP) && (fehler<3))
    1dec:	f2 01       	movw	r30, r4
    1dee:	80 81       	ld	r24, Z
    1df0:	91 81       	ldd	r25, Z+1	; 0x01
    1df2:	a2 81       	ldd	r26, Z+2	; 0x02
    1df4:	b3 81       	ldd	r27, Z+3	; 0x03
    1df6:	80 37       	cpi	r24, 0x70	; 112
    1df8:	97 41       	sbci	r25, 0x17	; 23
    1dfa:	a1 05       	cpc	r26, r1
    1dfc:	b1 05       	cpc	r27, r1
    1dfe:	0c f0       	brlt	.+2      	; 0x1e02 <main_init_task+0x1e4>
    1e00:	b1 cf       	rjmp	.-158    	; 0x1d64 <main_init_task+0x146>
    1e02:	b7 cf       	rjmp	.-146    	; 0x1d72 <main_init_task+0x154>
	//AD7794_init(1);	//init channel 1 on external adc
	//LM95071_init();
	//LM50_init();
	
	//----------------
}
    1e04:	cf 91       	pop	r28
    1e06:	1f 91       	pop	r17
    1e08:	0f 91       	pop	r16
    1e0a:	ff 90       	pop	r15
    1e0c:	ef 90       	pop	r14
    1e0e:	df 90       	pop	r13
    1e10:	cf 90       	pop	r12
    1e12:	bf 90       	pop	r11
    1e14:	af 90       	pop	r10
    1e16:	8f 90       	pop	r8
    1e18:	7f 90       	pop	r7
    1e1a:	5f 90       	pop	r5
    1e1c:	4f 90       	pop	r4
    1e1e:	08 95       	ret

00001e20 <timer_1ms_task>:

void timer_1ms_task()	//1 kHz
{
    1e20:	08 95       	ret

00001e22 <timer_5ms_task>:
	
	//----------------
}

void timer_5ms_task()	//200 Hz
{
    1e22:	08 95       	ret

00001e24 <timer_10ms_task>:
	
	//----------------
}

void timer_10ms_task()	//100 Hz
{
    1e24:	08 95       	ret

00001e26 <timer_50ms_task>:
	//can_tx_flags |= 0x01;		//schedule transmission of Send-Message #0
	//----------------
}

void timer_50ms_task()	//20 Hz
{
    1e26:	08 95       	ret

00001e28 <timer_100ms_task>:
	
	//----------------
}

void timer_100ms_task()	//10 Hz
{
    1e28:	08 95       	ret

00001e2a <timer_500ms_task>:
	
	//----------------
}

void timer_500ms_task()	//2 Hz
{
    1e2a:	8f 92       	push	r8
    1e2c:	9f 92       	push	r9
    1e2e:	af 92       	push	r10
    1e30:	bf 92       	push	r11
    1e32:	cf 92       	push	r12
    1e34:	df 92       	push	r13
    1e36:	ef 92       	push	r14
    1e38:	ff 92       	push	r15
    1e3a:	0f 93       	push	r16
    1e3c:	1f 93       	push	r17
    1e3e:	cf 93       	push	r28
    1e40:	df 93       	push	r29
    1e42:	1f 92       	push	r1
    1e44:	cd b7       	in	r28, 0x3d	; 61
    1e46:	de b7       	in	r29, 0x3e	; 62
	char eingabe;
	static char mode=48;
	uint8_t i;
	sint16_t tempspeicher;
	
	Errorcode=bmschip_getVoltages(bms.volt.val);
    1e48:	8d ee       	ldi	r24, 0xED	; 237
    1e4a:	94 e0       	ldi	r25, 0x04	; 4
    1e4c:	0e 94 75 04 	call	0x8ea	; 0x8ea <bmschip_getVoltages>
    1e50:	80 93 e4 06 	sts	0x06E4, r24
	if (Errorcode == 1)
    1e54:	81 30       	cpi	r24, 0x01	; 1
    1e56:	41 f4       	brne	.+16     	; 0x1e68 <timer_500ms_task+0x3e>
	{
		usart_transmit_string("PEC-Fehler");
    1e58:	8a e5       	ldi	r24, 0x5A	; 90
    1e5a:	93 e0       	ldi	r25, 0x03	; 3
    1e5c:	0e 94 9b 0d 	call	0x1b36	; 0x1b36 <usart_transmit_string>
		usart_transmit_string("\r\n");
    1e60:	81 ef       	ldi	r24, 0xF1	; 241
    1e62:	93 e0       	ldi	r25, 0x03	; 3
    1e64:	0e 94 9b 0d 	call	0x1b36	; 0x1b36 <usart_transmit_string>
	}
	bmschip_evaluate(bms.volt.val, &bms.volt.max, &bms.volt.maxNum,
    1e68:	0f 2e       	mov	r0, r31
    1e6a:	f5 e7       	ldi	r31, 0x75	; 117
    1e6c:	cf 2e       	mov	r12, r31
    1e6e:	f6 e0       	ldi	r31, 0x06	; 6
    1e70:	df 2e       	mov	r13, r31
    1e72:	f0 2d       	mov	r31, r0
    1e74:	0f 2e       	mov	r0, r31
    1e76:	f1 e7       	ldi	r31, 0x71	; 113
    1e78:	ef 2e       	mov	r14, r31
    1e7a:	f6 e0       	ldi	r31, 0x06	; 6
    1e7c:	ff 2e       	mov	r15, r31
    1e7e:	f0 2d       	mov	r31, r0
    1e80:	04 e7       	ldi	r16, 0x74	; 116
    1e82:	16 e0       	ldi	r17, 0x06	; 6
    1e84:	2f e6       	ldi	r18, 0x6F	; 111
    1e86:	36 e0       	ldi	r19, 0x06	; 6
    1e88:	43 e7       	ldi	r20, 0x73	; 115
    1e8a:	56 e0       	ldi	r21, 0x06	; 6
    1e8c:	6d e6       	ldi	r22, 0x6D	; 109
    1e8e:	76 e0       	ldi	r23, 0x06	; 6
    1e90:	8d ee       	ldi	r24, 0xED	; 237
    1e92:	94 e0       	ldi	r25, 0x04	; 4
    1e94:	0e 94 8e 05 	call	0xb1c	; 0xb1c <bmschip_evaluate>
	&bms.volt.min, &bms.volt.minNum, &bms.volt.avg, &bms.volt.NumOfCells);
	
	if(usart_receive(&eingabe))
    1e98:	ce 01       	movw	r24, r28
    1e9a:	01 96       	adiw	r24, 0x01	; 1
    1e9c:	0e 94 ad 0d 	call	0x1b5a	; 0x1b5a <usart_receive>
    1ea0:	88 23       	and	r24, r24
    1ea2:	09 f4       	brne	.+2      	; 0x1ea6 <timer_500ms_task+0x7c>
    1ea4:	6b c1       	rjmp	.+726    	; 0x217c <timer_500ms_task+0x352>
	{
		switch (eingabe)
    1ea6:	89 81       	ldd	r24, Y+1	; 0x01
    1ea8:	80 33       	cpi	r24, 0x30	; 48
    1eaa:	19 f0       	breq	.+6      	; 0x1eb2 <timer_500ms_task+0x88>
    1eac:	81 33       	cpi	r24, 0x31	; 49
    1eae:	49 f0       	breq	.+18     	; 0x1ec2 <timer_500ms_task+0x98>
    1eb0:	0d c0       	rjmp	.+26     	; 0x1ecc <timer_500ms_task+0xa2>
		{
			case 48:	SET_FALSE(bal_active);
    1eb2:	eb ee       	ldi	r30, 0xEB	; 235
    1eb4:	f4 e0       	ldi	r31, 0x04	; 4
    1eb6:	80 81       	ld	r24, Z
    1eb8:	89 7e       	andi	r24, 0xE9	; 233
    1eba:	80 83       	st	Z, r24
			bmschip_writeConfig();
    1ebc:	0e 94 b2 02 	call	0x564	; 0x564 <bmschip_writeConfig>
			break;
    1ec0:	05 c0       	rjmp	.+10     	; 0x1ecc <timer_500ms_task+0xa2>
			case 49:	SET_TRUE(bal_active);
    1ec2:	eb ee       	ldi	r30, 0xEB	; 235
    1ec4:	f4 e0       	ldi	r31, 0x04	; 4
    1ec6:	80 81       	ld	r24, Z
    1ec8:	86 61       	ori	r24, 0x16	; 22
    1eca:	80 83       	st	Z, r24
			break;
			default:	break;
		}
	}
	
	if(IS_FALSE(bal_active)) mode = 48;		//Ausgabe: 0
    1ecc:	80 91 eb 04 	lds	r24, 0x04EB
    1ed0:	86 71       	andi	r24, 0x16	; 22
    1ed2:	21 f4       	brne	.+8      	; 0x1edc <timer_500ms_task+0xb2>
    1ed4:	80 e3       	ldi	r24, 0x30	; 48
    1ed6:	80 93 06 01 	sts	0x0106, r24
    1eda:	15 c0       	rjmp	.+42     	; 0x1f06 <timer_500ms_task+0xdc>
	if(IS_TRUE(bal_active)) mode = 49;		//Ausgabe: 1; 49 wegen ASCII
    1edc:	86 31       	cpi	r24, 0x16	; 22
    1ede:	09 f5       	brne	.+66     	; 0x1f22 <timer_500ms_task+0xf8>
    1ee0:	81 e3       	ldi	r24, 0x31	; 49
    1ee2:	80 93 06 01 	sts	0x0106, r24
	
	if(IS_TRUE(bal_active))		//Balancing erlaubt?
	{
		bmschip_checkBalancing(bms.volt.val, bms.volt.min,
    1ee6:	40 91 9a 06 	lds	r20, 0x069A
    1eea:	50 91 9b 06 	lds	r21, 0x069B
    1eee:	60 91 6f 06 	lds	r22, 0x066F
    1ef2:	70 91 70 06 	lds	r23, 0x0670
    1ef6:	26 e7       	ldi	r18, 0x76	; 118
    1ef8:	36 e0       	ldi	r19, 0x06	; 6
    1efa:	8d ee       	ldi	r24, 0xED	; 237
    1efc:	94 e0       	ldi	r25, 0x04	; 4
    1efe:	0e 94 21 06 	call	0xc42	; 0xc42 <bmschip_checkBalancing>
		bms.balancing.undervoltage, bms.balancing.cells);
		bmschip_writeConfig();
    1f02:	0e 94 b2 02 	call	0x564	; 0x564 <bmschip_writeConfig>
	}
	
	if(IS_FALSE(bal_active))
    1f06:	80 91 eb 04 	lds	r24, 0x04EB
    1f0a:	86 71       	andi	r24, 0x16	; 22
    1f0c:	51 f4       	brne	.+20     	; 0x1f22 <timer_500ms_task+0xf8>
	{
		bmschip_writeConfig();
    1f0e:	0e 94 b2 02 	call	0x564	; 0x564 <bmschip_writeConfig>
		for(i=0;i<slave_boards;i++)
		{
			bms.balancing.cells[i] = 0x0000;
    1f12:	10 92 77 06 	sts	0x0677, r1
    1f16:	10 92 76 06 	sts	0x0676, r1
    1f1a:	10 92 79 06 	sts	0x0679, r1
    1f1e:	10 92 78 06 	sts	0x0678, r1
		}
	}
	
	bmschip_getTemperature(3);			//Temp-fkt
    1f22:	83 e0       	ldi	r24, 0x03	; 3
    1f24:	0e 94 10 07 	call	0xe20	; 0xe20 <bmschip_getTemperature>
	
	
	//erste Zeile
	
	
	usart_transmit_string("\f");
    1f28:	86 e9       	ldi	r24, 0x96	; 150
    1f2a:	93 e0       	ldi	r25, 0x03	; 3
    1f2c:	0e 94 9b 0d 	call	0x1b36	; 0x1b36 <usart_transmit_string>
    } else if (__radix < 2 || __radix > 36) {
	*__s = 0;
	return __s;
    } else {
	extern char *__utoa_ncheck (unsigned int, char *, unsigned char);
	return __utoa_ncheck (__val, __s, __radix);
    1f30:	4a e0       	ldi	r20, 0x0A	; 10
    1f32:	6a ed       	ldi	r22, 0xDA	; 218
    1f34:	76 e0       	ldi	r23, 0x06	; 6
    1f36:	80 91 6f 06 	lds	r24, 0x066F
    1f3a:	90 91 70 06 	lds	r25, 0x0670
    1f3e:	0e 94 56 13 	call	0x26ac	; 0x26ac <__utoa_ncheck>
	utoa(bms.volt.min, uart_out, 10);	//int in ascii (uart_out ist ascii-buffer)
	usart_transmit_string(" min. Voltage: ");
    1f42:	88 e9       	ldi	r24, 0x98	; 152
    1f44:	93 e0       	ldi	r25, 0x03	; 3
    1f46:	0e 94 9b 0d 	call	0x1b36	; 0x1b36 <usart_transmit_string>
	while(!(usart_transmit_char(uart_out[0])));
    1f4a:	0a ed       	ldi	r16, 0xDA	; 218
    1f4c:	16 e0       	ldi	r17, 0x06	; 6
    1f4e:	f8 01       	movw	r30, r16
    1f50:	80 81       	ld	r24, Z
    1f52:	0e 94 91 0d 	call	0x1b22	; 0x1b22 <usart_transmit_char>
    1f56:	88 23       	and	r24, r24
    1f58:	d1 f3       	breq	.-12     	; 0x1f4e <timer_500ms_task+0x124>
	while(!(usart_transmit_char(',')));
    1f5a:	8c e2       	ldi	r24, 0x2C	; 44
    1f5c:	0e 94 91 0d 	call	0x1b22	; 0x1b22 <usart_transmit_char>
    1f60:	88 23       	and	r24, r24
    1f62:	d9 f3       	breq	.-10     	; 0x1f5a <timer_500ms_task+0x130>
	usart_transmit_string(&uart_out[1]);
    1f64:	8b ed       	ldi	r24, 0xDB	; 219
    1f66:	96 e0       	ldi	r25, 0x06	; 6
    1f68:	0e 94 9b 0d 	call	0x1b36	; 0x1b36 <usart_transmit_string>
	usart_transmit_string("\t Cell: ");
    1f6c:	88 ea       	ldi	r24, 0xA8	; 168
    1f6e:	93 e0       	ldi	r25, 0x03	; 3
    1f70:	0e 94 9b 0d 	call	0x1b36	; 0x1b36 <usart_transmit_string>
	utoa((uint16_t) bms.volt.minNum , uart_out, 10);
    1f74:	80 91 74 06 	lds	r24, 0x0674
    1f78:	4a e0       	ldi	r20, 0x0A	; 10
    1f7a:	6a ed       	ldi	r22, 0xDA	; 218
    1f7c:	76 e0       	ldi	r23, 0x06	; 6
    1f7e:	90 e0       	ldi	r25, 0x00	; 0
    1f80:	0e 94 56 13 	call	0x26ac	; 0x26ac <__utoa_ncheck>
	usart_transmit_string(uart_out);
    1f84:	8a ed       	ldi	r24, 0xDA	; 218
    1f86:	96 e0       	ldi	r25, 0x06	; 6
    1f88:	0e 94 9b 0d 	call	0x1b36	; 0x1b36 <usart_transmit_string>
    1f8c:	4a e0       	ldi	r20, 0x0A	; 10
    1f8e:	6a ed       	ldi	r22, 0xDA	; 218
    1f90:	76 e0       	ldi	r23, 0x06	; 6
    1f92:	80 91 71 06 	lds	r24, 0x0671
    1f96:	90 91 72 06 	lds	r25, 0x0672
    1f9a:	0e 94 56 13 	call	0x26ac	; 0x26ac <__utoa_ncheck>
	//zweite Zeile
	utoa(bms.volt.avg, uart_out, 10);
	usart_transmit_string("\r\n avg. Voltage: ");
    1f9e:	81 eb       	ldi	r24, 0xB1	; 177
    1fa0:	93 e0       	ldi	r25, 0x03	; 3
    1fa2:	0e 94 9b 0d 	call	0x1b36	; 0x1b36 <usart_transmit_string>
	while(!(usart_transmit_char(uart_out[0])));
    1fa6:	0a ed       	ldi	r16, 0xDA	; 218
    1fa8:	16 e0       	ldi	r17, 0x06	; 6
    1faa:	f8 01       	movw	r30, r16
    1fac:	80 81       	ld	r24, Z
    1fae:	0e 94 91 0d 	call	0x1b22	; 0x1b22 <usart_transmit_char>
    1fb2:	88 23       	and	r24, r24
    1fb4:	d1 f3       	breq	.-12     	; 0x1faa <timer_500ms_task+0x180>
	while(!(usart_transmit_char(',')));
    1fb6:	8c e2       	ldi	r24, 0x2C	; 44
    1fb8:	0e 94 91 0d 	call	0x1b22	; 0x1b22 <usart_transmit_char>
    1fbc:	88 23       	and	r24, r24
    1fbe:	d9 f3       	breq	.-10     	; 0x1fb6 <timer_500ms_task+0x18c>
	usart_transmit_string(&uart_out[1]);
    1fc0:	8b ed       	ldi	r24, 0xDB	; 219
    1fc2:	96 e0       	ldi	r25, 0x06	; 6
    1fc4:	0e 94 9b 0d 	call	0x1b36	; 0x1b36 <usart_transmit_string>
    1fc8:	4a e0       	ldi	r20, 0x0A	; 10
    1fca:	6a ed       	ldi	r22, 0xDA	; 218
    1fcc:	76 e0       	ldi	r23, 0x06	; 6
    1fce:	80 91 6d 06 	lds	r24, 0x066D
    1fd2:	90 91 6e 06 	lds	r25, 0x066E
    1fd6:	0e 94 56 13 	call	0x26ac	; 0x26ac <__utoa_ncheck>
	//dritte Zeile
	utoa(bms.volt.max, uart_out, 10);
	usart_transmit_string("\r\n max. Voltage: ");
    1fda:	83 ec       	ldi	r24, 0xC3	; 195
    1fdc:	93 e0       	ldi	r25, 0x03	; 3
    1fde:	0e 94 9b 0d 	call	0x1b36	; 0x1b36 <usart_transmit_string>
	while(!(usart_transmit_char(uart_out[0])));
    1fe2:	0a ed       	ldi	r16, 0xDA	; 218
    1fe4:	16 e0       	ldi	r17, 0x06	; 6
    1fe6:	f8 01       	movw	r30, r16
    1fe8:	80 81       	ld	r24, Z
    1fea:	0e 94 91 0d 	call	0x1b22	; 0x1b22 <usart_transmit_char>
    1fee:	88 23       	and	r24, r24
    1ff0:	d1 f3       	breq	.-12     	; 0x1fe6 <timer_500ms_task+0x1bc>
	while(!(usart_transmit_char(',')));
    1ff2:	8c e2       	ldi	r24, 0x2C	; 44
    1ff4:	0e 94 91 0d 	call	0x1b22	; 0x1b22 <usart_transmit_char>
    1ff8:	88 23       	and	r24, r24
    1ffa:	d9 f3       	breq	.-10     	; 0x1ff2 <timer_500ms_task+0x1c8>
	usart_transmit_string(&uart_out[1]);
    1ffc:	8b ed       	ldi	r24, 0xDB	; 219
    1ffe:	96 e0       	ldi	r25, 0x06	; 6
    2000:	0e 94 9b 0d 	call	0x1b36	; 0x1b36 <usart_transmit_string>
	usart_transmit_string("\t Cell: ");
    2004:	88 ea       	ldi	r24, 0xA8	; 168
    2006:	93 e0       	ldi	r25, 0x03	; 3
    2008:	0e 94 9b 0d 	call	0x1b36	; 0x1b36 <usart_transmit_string>
	utoa((uint16_t) bms.volt.maxNum , uart_out, 10);
    200c:	80 91 73 06 	lds	r24, 0x0673
    2010:	4a e0       	ldi	r20, 0x0A	; 10
    2012:	6a ed       	ldi	r22, 0xDA	; 218
    2014:	76 e0       	ldi	r23, 0x06	; 6
    2016:	90 e0       	ldi	r25, 0x00	; 0
    2018:	0e 94 56 13 	call	0x26ac	; 0x26ac <__utoa_ncheck>
	usart_transmit_string(uart_out);
    201c:	8a ed       	ldi	r24, 0xDA	; 218
    201e:	96 e0       	ldi	r25, 0x06	; 6
    2020:	0e 94 9b 0d 	call	0x1b36	; 0x1b36 <usart_transmit_string>
    2024:	06 ea       	ldi	r16, 0xA6	; 166
    2026:	16 e0       	ldi	r17, 0x06	; 6
    2028:	0f 2e       	mov	r0, r31
    202a:	fe ea       	ldi	r31, 0xAE	; 174
    202c:	af 2e       	mov	r10, r31
    202e:	f6 e0       	ldi	r31, 0x06	; 6
    2030:	bf 2e       	mov	r11, r31
    2032:	f0 2d       	mov	r31, r0
	
	//Temperaturen des LTC6804
	for(i=0; i<slave_boards; i++)
	{
		tempspeicher = (sint16_t)(bms.temp.temp_transmit[i]/100);	//Temp vor dem Komma
    2034:	0f 2e       	mov	r0, r31
    2036:	f4 e6       	ldi	r31, 0x64	; 100
    2038:	cf 2e       	mov	r12, r31
    203a:	d1 2c       	mov	r13, r1
    203c:	e1 2c       	mov	r14, r1
    203e:	f1 2c       	mov	r15, r1
    2040:	f0 2d       	mov	r31, r0
    2042:	48 01       	movw	r8, r16
    2044:	f8 01       	movw	r30, r16
    2046:	60 81       	ld	r22, Z
    2048:	71 81       	ldd	r23, Z+1	; 0x01
    204a:	82 81       	ldd	r24, Z+2	; 0x02
    204c:	93 81       	ldd	r25, Z+3	; 0x03
    204e:	a7 01       	movw	r20, r14
    2050:	96 01       	movw	r18, r12
    2052:	0e 94 24 12 	call	0x2448	; 0x2448 <__divmodsi4>
    2056:	da 01       	movw	r26, r20
    2058:	c9 01       	movw	r24, r18
    } else if (__radix < 2 || __radix > 36) {
	*__s = 0;
	return __s;
    } else {
	extern char *__itoa_ncheck (int, char *, unsigned char);
	return __itoa_ncheck (__val, __s, __radix);
    205a:	4a e0       	ldi	r20, 0x0A	; 10
    205c:	6a ed       	ldi	r22, 0xDA	; 218
    205e:	76 e0       	ldi	r23, 0x06	; 6
    2060:	0e 94 4b 13 	call	0x2696	; 0x2696 <__itoa_ncheck>
		itoa(tempspeicher, uart_out, 10);
		usart_transmit_string("\r\n\n Temp ");
    2064:	85 ed       	ldi	r24, 0xD5	; 213
    2066:	93 e0       	ldi	r25, 0x03	; 3
    2068:	0e 94 9b 0d 	call	0x1b36	; 0x1b36 <usart_transmit_string>
		usart_transmit_string(uart_out);
    206c:	8a ed       	ldi	r24, 0xDA	; 218
    206e:	96 e0       	ldi	r25, 0x06	; 6
    2070:	0e 94 9b 0d 	call	0x1b36	; 0x1b36 <usart_transmit_string>
		while(!(usart_transmit_char(',')));
    2074:	8c e2       	ldi	r24, 0x2C	; 44
    2076:	0e 94 91 0d 	call	0x1b22	; 0x1b22 <usart_transmit_char>
    207a:	88 23       	and	r24, r24
    207c:	d9 f3       	breq	.-10     	; 0x2074 <timer_500ms_task+0x24a>
    207e:	0c 5f       	subi	r16, 0xFC	; 252
    2080:	1f 4f       	sbci	r17, 0xFF	; 255
		tempspeicher = (sint16_t)(bms.temp.temp_transmit[i]%100);	//Temp hinter dem Komma
    2082:	f4 01       	movw	r30, r8
    2084:	60 81       	ld	r22, Z
    2086:	71 81       	ldd	r23, Z+1	; 0x01
    2088:	82 81       	ldd	r24, Z+2	; 0x02
    208a:	93 81       	ldd	r25, Z+3	; 0x03
    208c:	a7 01       	movw	r20, r14
    208e:	96 01       	movw	r18, r12
    2090:	0e 94 24 12 	call	0x2448	; 0x2448 <__divmodsi4>
    2094:	dc 01       	movw	r26, r24
    2096:	cb 01       	movw	r24, r22
    2098:	4a e0       	ldi	r20, 0x0A	; 10
    209a:	6a ed       	ldi	r22, 0xDA	; 218
    209c:	76 e0       	ldi	r23, 0x06	; 6
    209e:	0e 94 4b 13 	call	0x2696	; 0x2696 <__itoa_ncheck>
		itoa(tempspeicher, uart_out, 10);
		usart_transmit_string(uart_out);
    20a2:	8a ed       	ldi	r24, 0xDA	; 218
    20a4:	96 e0       	ldi	r25, 0x06	; 6
    20a6:	0e 94 9b 0d 	call	0x1b36	; 0x1b36 <usart_transmit_string>
	usart_transmit_string("\t Cell: ");
	utoa((uint16_t) bms.volt.maxNum , uart_out, 10);
	usart_transmit_string(uart_out);
	
	//Temperaturen des LTC6804
	for(i=0; i<slave_boards; i++)
    20aa:	0a 15       	cp	r16, r10
    20ac:	1b 05       	cpc	r17, r11
    20ae:	49 f6       	brne	.-110    	; 0x2042 <timer_500ms_task+0x218>
		usart_transmit_string(uart_out);
		tempspeicher=0;
	}
	
	//Temperaturen des externen Boards
	usart_transmit_string("\r\nExternal Sensors\r\n");
    20b0:	8f ed       	ldi	r24, 0xDF	; 223
    20b2:	93 e0       	ldi	r25, 0x03	; 3
    20b4:	0e 94 9b 0d 	call	0x1b36	; 0x1b36 <usart_transmit_string>
    20b8:	0f 2e       	mov	r0, r31
    20ba:	fe ea       	ldi	r31, 0xAE	; 174
    20bc:	ef 2e       	mov	r14, r31
    20be:	f6 e0       	ldi	r31, 0x06	; 6
    20c0:	ff 2e       	mov	r15, r31
    20c2:	f0 2d       	mov	r31, r0
    20c4:	00 e0       	ldi	r16, 0x00	; 0
    20c6:	10 e0       	ldi	r17, 0x00	; 0
			tempspeicher=(uint16_t)ext_temp[i];
			utoa(tempspeicher, uart_out, 10);
			usart_transmit_string(uart_out);
			usart_transmit_string("\t");
			tempspeicher = 0;
			if((i%10)==0 && i>0)
    20c8:	0f 2e       	mov	r0, r31
    20ca:	fd ec       	ldi	r31, 0xCD	; 205
    20cc:	cf 2e       	mov	r12, r31
    20ce:	f0 2d       	mov	r31, r0
    20d0:	d0 2e       	mov	r13, r16
	usart_transmit_string("\r\nExternal Sensors\r\n");
	if(ext_sensors>0)
	{
		for(i=0; i<ext_sensors; i++)
		{
			tempspeicher=(uint16_t)ext_temp[i];
    20d2:	f7 01       	movw	r30, r14
    20d4:	81 91       	ld	r24, Z+
    20d6:	7f 01       	movw	r14, r30
    20d8:	0f 5f       	subi	r16, 0xFF	; 255
    20da:	1f 4f       	sbci	r17, 0xFF	; 255
    } else if (__radix < 2 || __radix > 36) {
	*__s = 0;
	return __s;
    } else {
	extern char *__utoa_ncheck (unsigned int, char *, unsigned char);
	return __utoa_ncheck (__val, __s, __radix);
    20dc:	4a e0       	ldi	r20, 0x0A	; 10
    20de:	6a ed       	ldi	r22, 0xDA	; 218
    20e0:	76 e0       	ldi	r23, 0x06	; 6
    20e2:	90 e0       	ldi	r25, 0x00	; 0
    20e4:	0e 94 56 13 	call	0x26ac	; 0x26ac <__utoa_ncheck>
			utoa(tempspeicher, uart_out, 10);
			usart_transmit_string(uart_out);
    20e8:	8a ed       	ldi	r24, 0xDA	; 218
    20ea:	96 e0       	ldi	r25, 0x06	; 6
    20ec:	0e 94 9b 0d 	call	0x1b36	; 0x1b36 <usart_transmit_string>
			usart_transmit_string("\t");
    20f0:	84 ef       	ldi	r24, 0xF4	; 244
    20f2:	93 e0       	ldi	r25, 0x03	; 3
    20f4:	0e 94 9b 0d 	call	0x1b36	; 0x1b36 <usart_transmit_string>
			tempspeicher = 0;
			if((i%10)==0 && i>0)
    20f8:	dc 9c       	mul	r13, r12
    20fa:	81 2d       	mov	r24, r1
    20fc:	11 24       	eor	r1, r1
    20fe:	86 95       	lsr	r24
    2100:	86 95       	lsr	r24
    2102:	86 95       	lsr	r24
    2104:	88 0f       	add	r24, r24
    2106:	98 2f       	mov	r25, r24
    2108:	99 0f       	add	r25, r25
    210a:	99 0f       	add	r25, r25
    210c:	89 0f       	add	r24, r25
    210e:	d8 12       	cpse	r13, r24
    2110:	06 c0       	rjmp	.+12     	; 0x211e <timer_500ms_task+0x2f4>
    2112:	01 30       	cpi	r16, 0x01	; 1
    2114:	e9 f2       	breq	.-70     	; 0x20d0 <timer_500ms_task+0x2a6>
			{
				usart_transmit_string("\r\n");
    2116:	81 ef       	ldi	r24, 0xF1	; 241
    2118:	93 e0       	ldi	r25, 0x03	; 3
    211a:	0e 94 9b 0d 	call	0x1b36	; 0x1b36 <usart_transmit_string>
	
	//Temperaturen des externen Boards
	usart_transmit_string("\r\nExternal Sensors\r\n");
	if(ext_sensors>0)
	{
		for(i=0; i<ext_sensors; i++)
    211e:	0b 32       	cpi	r16, 0x2B	; 43
    2120:	b8 f2       	brcs	.-82     	; 0x20d0 <timer_500ms_task+0x2a6>
		}
	}
	
	
	CAN_SCHEDULE_MESSAGE2;
	CAN_SCHEDULE_MESSAGE3;
    2122:	80 91 6e 04 	lds	r24, 0x046E
    2126:	8c 60       	ori	r24, 0x0C	; 12
    2128:	80 93 6e 04 	sts	0x046E, r24
	
	usart_transmit_string("\r\n\n Mode:    ");
    212c:	86 ef       	ldi	r24, 0xF6	; 246
    212e:	93 e0       	ldi	r25, 0x03	; 3
    2130:	0e 94 9b 0d 	call	0x1b36	; 0x1b36 <usart_transmit_string>
	while(!(usart_transmit_char(mode)));
    2134:	80 91 06 01 	lds	r24, 0x0106
    2138:	0e 94 91 0d 	call	0x1b22	; 0x1b22 <usart_transmit_char>
    213c:	88 23       	and	r24, r24
    213e:	d1 f3       	breq	.-12     	; 0x2134 <timer_500ms_task+0x30a>
	usart_transmit_string("\r\n <1> Charge ");
    2140:	84 e0       	ldi	r24, 0x04	; 4
    2142:	94 e0       	ldi	r25, 0x04	; 4
    2144:	0e 94 9b 0d 	call	0x1b36	; 0x1b36 <usart_transmit_string>
	usart_transmit_string("\r\n <0> Drive ");
    2148:	83 e1       	ldi	r24, 0x13	; 19
    214a:	94 e0       	ldi	r25, 0x04	; 4
    214c:	0e 94 9b 0d 	call	0x1b36	; 0x1b36 <usart_transmit_string>
	
	
	//S-Box Freigabesignal
	if((bms.volt.min<UNDERVOLT)||(bms.volt.max>OVERVOLT))
    2150:	80 91 6f 06 	lds	r24, 0x066F
    2154:	90 91 70 06 	lds	r25, 0x0670
    2158:	88 3a       	cpi	r24, 0xA8	; 168
    215a:	91 46       	sbci	r25, 0x61	; 97
    215c:	38 f0       	brcs	.+14     	; 0x216c <timer_500ms_task+0x342>
    215e:	80 91 6d 06 	lds	r24, 0x066D
    2162:	90 91 6e 06 	lds	r25, 0x066E
    2166:	81 31       	cpi	r24, 0x11	; 17
    2168:	94 4a       	sbci	r25, 0xA4	; 164
    216a:	10 f0       	brcs	.+4      	; 0x2170 <timer_500ms_task+0x346>
	{
		S_Box_NOT_active;
    216c:	72 98       	cbi	0x0e, 2	; 14
    216e:	0b c0       	rjmp	.+22     	; 0x2186 <timer_500ms_task+0x35c>
	}
	else S_Box_active;
    2170:	72 9a       	sbi	0x0e, 2	; 14
    2172:	09 c0       	rjmp	.+18     	; 0x2186 <timer_500ms_task+0x35c>
			break;
			default:	break;
		}
	}
	
	if(IS_FALSE(bal_active)) mode = 48;		//Ausgabe: 0
    2174:	80 e3       	ldi	r24, 0x30	; 48
    2176:	80 93 06 01 	sts	0x0106, r24
    217a:	c5 ce       	rjmp	.-630    	; 0x1f06 <timer_500ms_task+0xdc>
    217c:	80 91 eb 04 	lds	r24, 0x04EB
    2180:	86 71       	andi	r24, 0x16	; 22
    2182:	c1 f3       	breq	.-16     	; 0x2174 <timer_500ms_task+0x34a>
    2184:	ab ce       	rjmp	.-682    	; 0x1edc <timer_500ms_task+0xb2>
	else S_Box_active;
	
	
	//----------------
	
}
    2186:	0f 90       	pop	r0
    2188:	df 91       	pop	r29
    218a:	cf 91       	pop	r28
    218c:	1f 91       	pop	r17
    218e:	0f 91       	pop	r16
    2190:	ff 90       	pop	r15
    2192:	ef 90       	pop	r14
    2194:	df 90       	pop	r13
    2196:	cf 90       	pop	r12
    2198:	bf 90       	pop	r11
    219a:	af 90       	pop	r10
    219c:	9f 90       	pop	r9
    219e:	8f 90       	pop	r8
    21a0:	08 95       	ret

000021a2 <timer_1s_task>:

void timer_1s_task()		//1 Hz
{
    21a2:	08 95       	ret

000021a4 <main_loop_task>:
	//----------------
}


void main_loop_task()
{
    21a4:	08 95       	ret

000021a6 <can_receive_task>:
	//----------------
}


void can_receive_task(can_msg_t msg)
{
    21a6:	cf 92       	push	r12
    21a8:	df 92       	push	r13
    21aa:	ef 92       	push	r14
    21ac:	ff 92       	push	r15
    21ae:	0f 93       	push	r16
    21b0:	1f 93       	push	r17
    21b2:	cf 93       	push	r28
    21b4:	df 93       	push	r29
    21b6:	cd b7       	in	r28, 0x3d	; 61
    21b8:	de b7       	in	r29, 0x3e	; 62
    21ba:	2d 97       	sbiw	r28, 0x0d	; 13
    21bc:	0f b6       	in	r0, 0x3f	; 63
    21be:	f8 94       	cli
    21c0:	de bf       	out	0x3e, r29	; 62
    21c2:	0f be       	out	0x3f, r0	; 63
    21c4:	cd bf       	out	0x3d, r28	; 61
    21c6:	c9 82       	std	Y+1, r12	; 0x01
    21c8:	da 82       	std	Y+2, r13	; 0x02
    21ca:	eb 82       	std	Y+3, r14	; 0x03
    21cc:	fc 82       	std	Y+4, r15	; 0x04
    21ce:	0d 83       	std	Y+5, r16	; 0x05
    21d0:	1e 83       	std	Y+6, r17	; 0x06
    21d2:	2f 83       	std	Y+7, r18	; 0x07
    21d4:	38 87       	std	Y+8, r19	; 0x08
    21d6:	49 87       	std	Y+9, r20	; 0x09
    21d8:	5a 87       	std	Y+10, r21	; 0x0a
    21da:	6b 87       	std	Y+11, r22	; 0x0b
    21dc:	7c 87       	std	Y+12, r23	; 0x0c
    21de:	8d 87       	std	Y+13, r24	; 0x0d
	uint8_t i;
	
	switch(msg.id)
    21e0:	89 81       	ldd	r24, Y+1	; 0x01
    21e2:	9a 81       	ldd	r25, Y+2	; 0x02
    21e4:	ab 81       	ldd	r26, Y+3	; 0x03
    21e6:	bc 81       	ldd	r27, Y+4	; 0x04
    21e8:	84 30       	cpi	r24, 0x04	; 4
    21ea:	26 e0       	ldi	r18, 0x06	; 6
    21ec:	92 07       	cpc	r25, r18
    21ee:	a1 05       	cpc	r26, r1
    21f0:	b1 05       	cpc	r27, r1
    21f2:	09 f4       	brne	.+2      	; 0x21f6 <can_receive_task+0x50>
    21f4:	57 c0       	rjmp	.+174    	; 0x22a4 <can_receive_task+0xfe>
    21f6:	70 f4       	brcc	.+28     	; 0x2214 <can_receive_task+0x6e>
    21f8:	82 30       	cpi	r24, 0x02	; 2
    21fa:	26 e0       	ldi	r18, 0x06	; 6
    21fc:	92 07       	cpc	r25, r18
    21fe:	a1 05       	cpc	r26, r1
    2200:	b1 05       	cpc	r27, r1
    2202:	b1 f1       	breq	.+108    	; 0x2270 <can_receive_task+0xca>
    2204:	08 f0       	brcs	.+2      	; 0x2208 <can_receive_task+0x62>
    2206:	41 c0       	rjmp	.+130    	; 0x228a <can_receive_task+0xe4>
    2208:	81 30       	cpi	r24, 0x01	; 1
    220a:	96 40       	sbci	r25, 0x06	; 6
    220c:	a1 05       	cpc	r26, r1
    220e:	b1 05       	cpc	r27, r1
    2210:	11 f1       	breq	.+68     	; 0x2256 <can_receive_task+0xb0>
    2212:	6e c0       	rjmp	.+220    	; 0x22f0 <can_receive_task+0x14a>
    2214:	86 30       	cpi	r24, 0x06	; 6
    2216:	26 e0       	ldi	r18, 0x06	; 6
    2218:	92 07       	cpc	r25, r18
    221a:	a1 05       	cpc	r26, r1
    221c:	b1 05       	cpc	r27, r1
    221e:	09 f4       	brne	.+2      	; 0x2222 <can_receive_task+0x7c>
    2220:	5b c0       	rjmp	.+182    	; 0x22d8 <can_receive_task+0x132>
    2222:	08 f4       	brcc	.+2      	; 0x2226 <can_receive_task+0x80>
    2224:	4c c0       	rjmp	.+152    	; 0x22be <can_receive_task+0x118>
    2226:	82 30       	cpi	r24, 0x02	; 2
    2228:	27 e0       	ldi	r18, 0x07	; 7
    222a:	92 07       	cpc	r25, r18
    222c:	a1 05       	cpc	r26, r1
    222e:	b1 05       	cpc	r27, r1
    2230:	31 f0       	breq	.+12     	; 0x223e <can_receive_task+0x98>
    2232:	83 30       	cpi	r24, 0x03	; 3
    2234:	97 40       	sbci	r25, 0x07	; 7
    2236:	a1 05       	cpc	r26, r1
    2238:	b1 05       	cpc	r27, r1
    223a:	39 f0       	breq	.+14     	; 0x224a <can_receive_task+0xa4>
    223c:	59 c0       	rjmp	.+178    	; 0x22f0 <can_receive_task+0x14a>
	{
		//insert code here
		case 0x702:	SET_TRUE(bal_active);
    223e:	eb ee       	ldi	r30, 0xEB	; 235
    2240:	f4 e0       	ldi	r31, 0x04	; 4
    2242:	80 81       	ld	r24, Z
    2244:	86 61       	ori	r24, 0x16	; 22
    2246:	80 83       	st	Z, r24
					break;
    2248:	53 c0       	rjmp	.+166    	; 0x22f0 <can_receive_task+0x14a>
			
		case 0x703:	SET_FALSE(bal_active);
    224a:	eb ee       	ldi	r30, 0xEB	; 235
    224c:	f4 e0       	ldi	r31, 0x04	; 4
    224e:	80 81       	ld	r24, Z
    2250:	89 7e       	andi	r24, 0xE9	; 233
    2252:	80 83       	st	Z, r24
					break;
    2254:	4d c0       	rjmp	.+154    	; 0x22f0 <can_receive_task+0x14a>
    2256:	fe 01       	movw	r30, r28
    2258:	36 96       	adiw	r30, 0x06	; 6
    225a:	ae ea       	ldi	r26, 0xAE	; 174
    225c:	b6 e0       	ldi	r27, 0x06	; 6
    225e:	9e 01       	movw	r18, r28
    2260:	22 5f       	subi	r18, 0xF2	; 242
    2262:	3f 4f       	sbci	r19, 0xFF	; 255
		
		case 0x601:	for(i=0;i<8;i++)		//Ab hier: Einzeltemperaturen des Temperatur-Messboards
					{
						ext_temp[i] = msg.data.b[i];
    2264:	81 91       	ld	r24, Z+
    2266:	8d 93       	st	X+, r24
					break;
			
		case 0x703:	SET_FALSE(bal_active);
					break;
		
		case 0x601:	for(i=0;i<8;i++)		//Ab hier: Einzeltemperaturen des Temperatur-Messboards
    2268:	e2 17       	cp	r30, r18
    226a:	f3 07       	cpc	r31, r19
    226c:	d9 f7       	brne	.-10     	; 0x2264 <can_receive_task+0xbe>
    226e:	40 c0       	rjmp	.+128    	; 0x22f0 <can_receive_task+0x14a>
    2270:	fe 01       	movw	r30, r28
    2272:	36 96       	adiw	r30, 0x06	; 6
    2274:	a6 eb       	ldi	r26, 0xB6	; 182
    2276:	b6 e0       	ldi	r27, 0x06	; 6
    2278:	9e 01       	movw	r18, r28
    227a:	22 5f       	subi	r18, 0xF2	; 242
    227c:	3f 4f       	sbci	r19, 0xFF	; 255
					}
					break;
					
		case 0x602:	for(i=0;i<8;i++)
					{
						ext_temp[i+8] = msg.data.b[i];
    227e:	81 91       	ld	r24, Z+
    2280:	8d 93       	st	X+, r24
					{
						ext_temp[i] = msg.data.b[i];
					}
					break;
					
		case 0x602:	for(i=0;i<8;i++)
    2282:	e2 17       	cp	r30, r18
    2284:	f3 07       	cpc	r31, r19
    2286:	d9 f7       	brne	.-10     	; 0x227e <can_receive_task+0xd8>
    2288:	33 c0       	rjmp	.+102    	; 0x22f0 <can_receive_task+0x14a>
    228a:	fe 01       	movw	r30, r28
    228c:	36 96       	adiw	r30, 0x06	; 6
    228e:	ae eb       	ldi	r26, 0xBE	; 190
    2290:	b6 e0       	ldi	r27, 0x06	; 6
    2292:	9e 01       	movw	r18, r28
    2294:	24 5f       	subi	r18, 0xF4	; 244
    2296:	3f 4f       	sbci	r19, 0xFF	; 255
					}
					break;
					
		case 0x603:	for(i=0;i<6;i++)
					{
						ext_temp[i+16] = msg.data.b[i];
    2298:	81 91       	ld	r24, Z+
    229a:	8d 93       	st	X+, r24
					{
						ext_temp[i+8] = msg.data.b[i];
					}
					break;
					
		case 0x603:	for(i=0;i<6;i++)
    229c:	e2 17       	cp	r30, r18
    229e:	f3 07       	cpc	r31, r19
    22a0:	d9 f7       	brne	.-10     	; 0x2298 <can_receive_task+0xf2>
    22a2:	26 c0       	rjmp	.+76     	; 0x22f0 <can_receive_task+0x14a>
    22a4:	fe 01       	movw	r30, r28
    22a6:	36 96       	adiw	r30, 0x06	; 6
    22a8:	a4 ec       	ldi	r26, 0xC4	; 196
    22aa:	b6 e0       	ldi	r27, 0x06	; 6
    22ac:	9e 01       	movw	r18, r28
    22ae:	22 5f       	subi	r18, 0xF2	; 242
    22b0:	3f 4f       	sbci	r19, 0xFF	; 255
					}
					break;
					
		case 0x604:	for(i=0;i<8;i++)
					{
						ext_temp[i+22] = msg.data.b[i];
    22b2:	81 91       	ld	r24, Z+
    22b4:	8d 93       	st	X+, r24
					{
						ext_temp[i+16] = msg.data.b[i];
					}
					break;
					
		case 0x604:	for(i=0;i<8;i++)
    22b6:	e2 17       	cp	r30, r18
    22b8:	f3 07       	cpc	r31, r19
    22ba:	d9 f7       	brne	.-10     	; 0x22b2 <can_receive_task+0x10c>
    22bc:	19 c0       	rjmp	.+50     	; 0x22f0 <can_receive_task+0x14a>
    22be:	fe 01       	movw	r30, r28
    22c0:	36 96       	adiw	r30, 0x06	; 6
    22c2:	ac ec       	ldi	r26, 0xCC	; 204
    22c4:	b6 e0       	ldi	r27, 0x06	; 6
    22c6:	9e 01       	movw	r18, r28
    22c8:	22 5f       	subi	r18, 0xF2	; 242
    22ca:	3f 4f       	sbci	r19, 0xFF	; 255
					}
					break;
					
		case 0x605:	for(i=0;i<8;i++)
					{
						ext_temp[i+30] = msg.data.b[i];
    22cc:	81 91       	ld	r24, Z+
    22ce:	8d 93       	st	X+, r24
					{
						ext_temp[i+22] = msg.data.b[i];
					}
					break;
					
		case 0x605:	for(i=0;i<8;i++)
    22d0:	e2 17       	cp	r30, r18
    22d2:	f3 07       	cpc	r31, r19
    22d4:	d9 f7       	brne	.-10     	; 0x22cc <can_receive_task+0x126>
    22d6:	0c c0       	rjmp	.+24     	; 0x22f0 <can_receive_task+0x14a>
    22d8:	fe 01       	movw	r30, r28
    22da:	36 96       	adiw	r30, 0x06	; 6
    22dc:	a4 ed       	ldi	r26, 0xD4	; 212
    22de:	b6 e0       	ldi	r27, 0x06	; 6
    22e0:	9e 01       	movw	r18, r28
    22e2:	24 5f       	subi	r18, 0xF4	; 244
    22e4:	3f 4f       	sbci	r19, 0xFF	; 255
					}
					break;
					
		case 0x606:	for(i=0;i<6;i++)
					{
						ext_temp[i+38] = msg.data.b[i];
    22e6:	81 91       	ld	r24, Z+
    22e8:	8d 93       	st	X+, r24
					{
						ext_temp[i+30] = msg.data.b[i];
					}
					break;
					
		case 0x606:	for(i=0;i<6;i++)
    22ea:	e2 17       	cp	r30, r18
    22ec:	f3 07       	cpc	r31, r19
    22ee:	d9 f7       	brne	.-10     	; 0x22e6 <can_receive_task+0x140>
					
		default: 
					break;
		//----------------
	}
}
    22f0:	2d 96       	adiw	r28, 0x0d	; 13
    22f2:	0f b6       	in	r0, 0x3f	; 63
    22f4:	f8 94       	cli
    22f6:	de bf       	out	0x3e, r29	; 62
    22f8:	0f be       	out	0x3f, r0	; 63
    22fa:	cd bf       	out	0x3d, r28	; 61
    22fc:	df 91       	pop	r29
    22fe:	cf 91       	pop	r28
    2300:	1f 91       	pop	r17
    2302:	0f 91       	pop	r16
    2304:	ff 90       	pop	r15
    2306:	ef 90       	pop	r14
    2308:	df 90       	pop	r13
    230a:	cf 90       	pop	r12
    230c:	08 95       	ret

0000230e <can_send_task>:

void can_send_task(uint8_t index)
{
    230e:	8f 92       	push	r8
    2310:	9f 92       	push	r9
    2312:	af 92       	push	r10
    2314:	bf 92       	push	r11
    2316:	cf 92       	push	r12
    2318:	df 92       	push	r13
    231a:	ef 92       	push	r14
    231c:	ff 92       	push	r15
    231e:	0f 93       	push	r16
    2320:	1f 93       	push	r17
    2322:	cf 93       	push	r28
    2324:	df 93       	push	r29
    2326:	cd b7       	in	r28, 0x3d	; 61
    2328:	de b7       	in	r29, 0x3e	; 62
    232a:	2d 97       	sbiw	r28, 0x0d	; 13
    232c:	0f b6       	in	r0, 0x3f	; 63
    232e:	f8 94       	cli
    2330:	de bf       	out	0x3e, r29	; 62
    2332:	0f be       	out	0x3f, r0	; 63
    2334:	cd bf       	out	0x3d, r28	; 61
	can_msg_t msg;
	switch(index)			//index 0 - 7 equals bits set in can_tx_flags mask
    2336:	83 30       	cpi	r24, 0x03	; 3
    2338:	39 f1       	breq	.+78     	; 0x2388 <can_send_task+0x7a>
    233a:	87 30       	cpi	r24, 0x07	; 7
    233c:	a9 f1       	breq	.+106    	; 0x23a8 <can_send_task+0x9a>
    233e:	82 30       	cpi	r24, 0x02	; 2
    2340:	09 f0       	breq	.+2      	; 0x2344 <can_send_task+0x36>
    2342:	41 c0       	rjmp	.+130    	; 0x23c6 <can_send_task+0xb8>
		//case 1:		msg.data.ll = 0xFEDCBA9876543210;
		//				msg.id = 0x002;
		//				msg.dlc = 0;
		//  			break;
		
		case 2: 		msg.data.b[1] = (GET_HIGH_BYTE(bms.volt.max));		//Uebersicht ueber die Zellspannungen
    2344:	ed e6       	ldi	r30, 0x6D	; 109
    2346:	f6 e0       	ldi	r31, 0x06	; 6
    2348:	80 81       	ld	r24, Z
    234a:	91 81       	ldd	r25, Z+1	; 0x01
    234c:	9f 83       	std	Y+7, r25	; 0x07
						msg.data.b[0] = (GET_LOW_BYTE(bms.volt.max));
    234e:	8e 83       	std	Y+6, r24	; 0x06
						msg.data.b[2] = bms.volt.maxNum;
    2350:	80 91 73 06 	lds	r24, 0x0673
    2354:	88 87       	std	Y+8, r24	; 0x08
						msg.data.b[4] = (GET_HIGH_BYTE(bms.volt.avg));
    2356:	e1 e7       	ldi	r30, 0x71	; 113
    2358:	f6 e0       	ldi	r31, 0x06	; 6
    235a:	80 81       	ld	r24, Z
    235c:	91 81       	ldd	r25, Z+1	; 0x01
    235e:	9a 87       	std	Y+10, r25	; 0x0a
						msg.data.b[3] = (GET_LOW_BYTE(bms.volt.avg));
    2360:	89 87       	std	Y+9, r24	; 0x09
						msg.data.b[6] = (GET_HIGH_BYTE(bms.volt.min));
    2362:	ef e6       	ldi	r30, 0x6F	; 111
    2364:	f6 e0       	ldi	r31, 0x06	; 6
    2366:	80 81       	ld	r24, Z
    2368:	91 81       	ldd	r25, Z+1	; 0x01
    236a:	9c 87       	std	Y+12, r25	; 0x0c
						msg.data.b[5] = (GET_LOW_BYTE(bms.volt.min));
    236c:	8b 87       	std	Y+11, r24	; 0x0b
						msg.data.b[7] = bms.volt.minNum;
    236e:	80 91 74 06 	lds	r24, 0x0674
    2372:	8d 87       	std	Y+13, r24	; 0x0d
						msg.id = 0x7FE;
						msg.dlc = 8;
    2374:	48 e0       	ldi	r20, 0x08	; 8
						msg.data.b[4] = (GET_HIGH_BYTE(bms.volt.avg));
						msg.data.b[3] = (GET_LOW_BYTE(bms.volt.avg));
						msg.data.b[6] = (GET_HIGH_BYTE(bms.volt.min));
						msg.data.b[5] = (GET_LOW_BYTE(bms.volt.min));
						msg.data.b[7] = bms.volt.minNum;
						msg.id = 0x7FE;
    2376:	0f 2e       	mov	r0, r31
    2378:	fe ef       	ldi	r31, 0xFE	; 254
    237a:	8f 2e       	mov	r8, r31
    237c:	f7 e0       	ldi	r31, 0x07	; 7
    237e:	9f 2e       	mov	r9, r31
    2380:	a1 2c       	mov	r10, r1
    2382:	b1 2c       	mov	r11, r1
    2384:	f0 2d       	mov	r31, r0
						msg.dlc = 8;
			 			break;
    2386:	1f c0       	rjmp	.+62     	; 0x23c6 <can_send_task+0xb8>
		
		case 3:			msg.data.b[0] = (GET_LOW_BYTE(bms.balancing.cells[0]));		//funktioniert nur beim Test mit 1 Slave
    2388:	e6 e7       	ldi	r30, 0x76	; 118
    238a:	f6 e0       	ldi	r31, 0x06	; 6
    238c:	90 81       	ld	r25, Z
    238e:	81 81       	ldd	r24, Z+1	; 0x01
    2390:	9e 83       	std	Y+6, r25	; 0x06
						msg.data.b[1] = (GET_HIGH_BYTE(bms.balancing.cells[0]));	//funktioniert nur beim Test mit 1 Slave
    2392:	8f 83       	std	Y+7, r24	; 0x07
						msg.id = 0x7FD;
						msg.dlc = 2;
    2394:	42 e0       	ldi	r20, 0x02	; 2
						msg.dlc = 8;
			 			break;
		
		case 3:			msg.data.b[0] = (GET_LOW_BYTE(bms.balancing.cells[0]));		//funktioniert nur beim Test mit 1 Slave
						msg.data.b[1] = (GET_HIGH_BYTE(bms.balancing.cells[0]));	//funktioniert nur beim Test mit 1 Slave
						msg.id = 0x7FD;
    2396:	0f 2e       	mov	r0, r31
    2398:	fd ef       	ldi	r31, 0xFD	; 253
    239a:	8f 2e       	mov	r8, r31
    239c:	f7 e0       	ldi	r31, 0x07	; 7
    239e:	9f 2e       	mov	r9, r31
    23a0:	a1 2c       	mov	r10, r1
    23a2:	b1 2c       	mov	r11, r1
    23a4:	f0 2d       	mov	r31, r0
						msg.dlc = 2;
		  				break;
    23a6:	0f c0       	rjmp	.+30     	; 0x23c6 <can_send_task+0xb8>
		//case 6:		msg.data.ll = ;
		//				msg.id = ;
		//				msg.dlc = ;
		//  			break;

		case 7:			msg.data.s[0] = LM95071_temp; //14 bit temp value
    23a8:	80 91 29 04 	lds	r24, 0x0429
    23ac:	90 91 2a 04 	lds	r25, 0x042A
    23b0:	9f 83       	std	Y+7, r25	; 0x07
    23b2:	8e 83       	std	Y+6, r24	; 0x06
						msg.id = 0x7FF;
						msg.dlc = 2;
    23b4:	42 e0       	ldi	r20, 0x02	; 2
		//				msg.id = ;
		//				msg.dlc = ;
		//  			break;

		case 7:			msg.data.s[0] = LM95071_temp; //14 bit temp value
						msg.id = 0x7FF;
    23b6:	0f 2e       	mov	r0, r31
    23b8:	88 24       	eor	r8, r8
    23ba:	8a 94       	dec	r8
    23bc:	f7 e0       	ldi	r31, 0x07	; 7
    23be:	9f 2e       	mov	r9, r31
    23c0:	a1 2c       	mov	r10, r1
    23c2:	b1 2c       	mov	r11, r1
    23c4:	f0 2d       	mov	r31, r0
		
		default:		break;
				
		//----------------
	}
	can_send_message(msg.id, msg.dlc, msg.data.ll);
    23c6:	ce 80       	ldd	r12, Y+6	; 0x06
    23c8:	df 80       	ldd	r13, Y+7	; 0x07
    23ca:	e8 84       	ldd	r14, Y+8	; 0x08
    23cc:	f9 84       	ldd	r15, Y+9	; 0x09
    23ce:	0a 85       	ldd	r16, Y+10	; 0x0a
    23d0:	1b 85       	ldd	r17, Y+11	; 0x0b
    23d2:	2c 85       	ldd	r18, Y+12	; 0x0c
    23d4:	3d 85       	ldd	r19, Y+13	; 0x0d
    23d6:	c5 01       	movw	r24, r10
    23d8:	b4 01       	movw	r22, r8
    23da:	0e 94 b6 0a 	call	0x156c	; 0x156c <can_send_message>
}
    23de:	2d 96       	adiw	r28, 0x0d	; 13
    23e0:	0f b6       	in	r0, 0x3f	; 63
    23e2:	f8 94       	cli
    23e4:	de bf       	out	0x3e, r29	; 62
    23e6:	0f be       	out	0x3f, r0	; 63
    23e8:	cd bf       	out	0x3d, r28	; 61
    23ea:	df 91       	pop	r29
    23ec:	cf 91       	pop	r28
    23ee:	1f 91       	pop	r17
    23f0:	0f 91       	pop	r16
    23f2:	ff 90       	pop	r15
    23f4:	ef 90       	pop	r14
    23f6:	df 90       	pop	r13
    23f8:	cf 90       	pop	r12
    23fa:	bf 90       	pop	r11
    23fc:	af 90       	pop	r10
    23fe:	9f 90       	pop	r9
    2400:	8f 90       	pop	r8
    2402:	08 95       	ret

00002404 <__udivmodsi4>:
    2404:	a1 e2       	ldi	r26, 0x21	; 33
    2406:	1a 2e       	mov	r1, r26
    2408:	aa 1b       	sub	r26, r26
    240a:	bb 1b       	sub	r27, r27
    240c:	fd 01       	movw	r30, r26
    240e:	0d c0       	rjmp	.+26     	; 0x242a <__udivmodsi4_ep>

00002410 <__udivmodsi4_loop>:
    2410:	aa 1f       	adc	r26, r26
    2412:	bb 1f       	adc	r27, r27
    2414:	ee 1f       	adc	r30, r30
    2416:	ff 1f       	adc	r31, r31
    2418:	a2 17       	cp	r26, r18
    241a:	b3 07       	cpc	r27, r19
    241c:	e4 07       	cpc	r30, r20
    241e:	f5 07       	cpc	r31, r21
    2420:	20 f0       	brcs	.+8      	; 0x242a <__udivmodsi4_ep>
    2422:	a2 1b       	sub	r26, r18
    2424:	b3 0b       	sbc	r27, r19
    2426:	e4 0b       	sbc	r30, r20
    2428:	f5 0b       	sbc	r31, r21

0000242a <__udivmodsi4_ep>:
    242a:	66 1f       	adc	r22, r22
    242c:	77 1f       	adc	r23, r23
    242e:	88 1f       	adc	r24, r24
    2430:	99 1f       	adc	r25, r25
    2432:	1a 94       	dec	r1
    2434:	69 f7       	brne	.-38     	; 0x2410 <__udivmodsi4_loop>
    2436:	60 95       	com	r22
    2438:	70 95       	com	r23
    243a:	80 95       	com	r24
    243c:	90 95       	com	r25
    243e:	9b 01       	movw	r18, r22
    2440:	ac 01       	movw	r20, r24
    2442:	bd 01       	movw	r22, r26
    2444:	cf 01       	movw	r24, r30
    2446:	08 95       	ret

00002448 <__divmodsi4>:
    2448:	05 2e       	mov	r0, r21
    244a:	97 fb       	bst	r25, 7
    244c:	1e f4       	brtc	.+6      	; 0x2454 <__divmodsi4+0xc>
    244e:	00 94       	com	r0
    2450:	0e 94 3b 12 	call	0x2476	; 0x2476 <__negsi2>
    2454:	57 fd       	sbrc	r21, 7
    2456:	07 d0       	rcall	.+14     	; 0x2466 <__divmodsi4_neg2>
    2458:	0e 94 02 12 	call	0x2404	; 0x2404 <__udivmodsi4>
    245c:	07 fc       	sbrc	r0, 7
    245e:	03 d0       	rcall	.+6      	; 0x2466 <__divmodsi4_neg2>
    2460:	4e f4       	brtc	.+18     	; 0x2474 <__divmodsi4_exit>
    2462:	0c 94 3b 12 	jmp	0x2476	; 0x2476 <__negsi2>

00002466 <__divmodsi4_neg2>:
    2466:	50 95       	com	r21
    2468:	40 95       	com	r20
    246a:	30 95       	com	r19
    246c:	21 95       	neg	r18
    246e:	3f 4f       	sbci	r19, 0xFF	; 255
    2470:	4f 4f       	sbci	r20, 0xFF	; 255
    2472:	5f 4f       	sbci	r21, 0xFF	; 255

00002474 <__divmodsi4_exit>:
    2474:	08 95       	ret

00002476 <__negsi2>:
    2476:	90 95       	com	r25
    2478:	80 95       	com	r24
    247a:	70 95       	com	r23
    247c:	61 95       	neg	r22
    247e:	7f 4f       	sbci	r23, 0xFF	; 255
    2480:	8f 4f       	sbci	r24, 0xFF	; 255
    2482:	9f 4f       	sbci	r25, 0xFF	; 255
    2484:	08 95       	ret

00002486 <__tablejump2__>:
    2486:	ee 0f       	add	r30, r30
    2488:	ff 1f       	adc	r31, r31
    248a:	05 90       	lpm	r0, Z+
    248c:	f4 91       	lpm	r31, Z
    248e:	e0 2d       	mov	r30, r0
    2490:	09 94       	ijmp

00002492 <__moddi3>:
    2492:	68 94       	set
    2494:	01 c0       	rjmp	.+2      	; 0x2498 <__divdi3_moddi3>

00002496 <__divdi3>:
    2496:	e8 94       	clt

00002498 <__divdi3_moddi3>:
    2498:	f9 2f       	mov	r31, r25
    249a:	f1 2b       	or	r31, r17
    249c:	12 f0       	brmi	.+4      	; 0x24a2 <__divdi3_moddi3+0xa>
    249e:	0c 94 7d 12 	jmp	0x24fa	; 0x24fa <__udivdi3_umoddi3>
    24a2:	a0 e0       	ldi	r26, 0x00	; 0
    24a4:	b0 e0       	ldi	r27, 0x00	; 0
    24a6:	e7 e5       	ldi	r30, 0x57	; 87
    24a8:	f2 e1       	ldi	r31, 0x12	; 18
    24aa:	0c 94 ef 12 	jmp	0x25de	; 0x25de <__prologue_saves__+0xc>
    24ae:	09 2e       	mov	r0, r25
    24b0:	05 94       	asr	r0
    24b2:	22 f4       	brpl	.+8      	; 0x24bc <__divdi3_moddi3+0x24>
    24b4:	0e 94 d9 12 	call	0x25b2	; 0x25b2 <__negdi2>
    24b8:	11 23       	and	r17, r17
    24ba:	92 f4       	brpl	.+36     	; 0x24e0 <__divdi3_moddi3+0x48>
    24bc:	f0 e8       	ldi	r31, 0x80	; 128
    24be:	0f 26       	eor	r0, r31
    24c0:	ff ef       	ldi	r31, 0xFF	; 255
    24c2:	e0 94       	com	r14
    24c4:	f0 94       	com	r15
    24c6:	00 95       	com	r16
    24c8:	10 95       	com	r17
    24ca:	b0 94       	com	r11
    24cc:	c0 94       	com	r12
    24ce:	d0 94       	com	r13
    24d0:	a1 94       	neg	r10
    24d2:	bf 0a       	sbc	r11, r31
    24d4:	cf 0a       	sbc	r12, r31
    24d6:	df 0a       	sbc	r13, r31
    24d8:	ef 0a       	sbc	r14, r31
    24da:	ff 0a       	sbc	r15, r31
    24dc:	0f 0b       	sbc	r16, r31
    24de:	1f 0b       	sbc	r17, r31
    24e0:	0e 94 88 12 	call	0x2510	; 0x2510 <__udivmod64>
    24e4:	07 fc       	sbrc	r0, 7
    24e6:	0e 94 d9 12 	call	0x25b2	; 0x25b2 <__negdi2>
    24ea:	cd b7       	in	r28, 0x3d	; 61
    24ec:	de b7       	in	r29, 0x3e	; 62
    24ee:	ec e0       	ldi	r30, 0x0C	; 12
    24f0:	0c 94 0b 13 	jmp	0x2616	; 0x2616 <__epilogue_restores__+0xc>

000024f4 <__umoddi3>:
    24f4:	68 94       	set
    24f6:	01 c0       	rjmp	.+2      	; 0x24fa <__udivdi3_umoddi3>

000024f8 <__udivdi3>:
    24f8:	e8 94       	clt

000024fa <__udivdi3_umoddi3>:
    24fa:	8f 92       	push	r8
    24fc:	9f 92       	push	r9
    24fe:	cf 93       	push	r28
    2500:	df 93       	push	r29
    2502:	0e 94 88 12 	call	0x2510	; 0x2510 <__udivmod64>
    2506:	df 91       	pop	r29
    2508:	cf 91       	pop	r28
    250a:	9f 90       	pop	r9
    250c:	8f 90       	pop	r8
    250e:	08 95       	ret

00002510 <__udivmod64>:
    2510:	88 24       	eor	r8, r8
    2512:	99 24       	eor	r9, r9
    2514:	f4 01       	movw	r30, r8
    2516:	e4 01       	movw	r28, r8
    2518:	b0 e4       	ldi	r27, 0x40	; 64
    251a:	9f 93       	push	r25
    251c:	aa 27       	eor	r26, r26
    251e:	9a 15       	cp	r25, r10
    2520:	8b 04       	cpc	r8, r11
    2522:	9c 04       	cpc	r9, r12
    2524:	ed 05       	cpc	r30, r13
    2526:	fe 05       	cpc	r31, r14
    2528:	cf 05       	cpc	r28, r15
    252a:	d0 07       	cpc	r29, r16
    252c:	a1 07       	cpc	r26, r17
    252e:	98 f4       	brcc	.+38     	; 0x2556 <__udivmod64+0x46>
    2530:	ad 2f       	mov	r26, r29
    2532:	dc 2f       	mov	r29, r28
    2534:	cf 2f       	mov	r28, r31
    2536:	fe 2f       	mov	r31, r30
    2538:	e9 2d       	mov	r30, r9
    253a:	98 2c       	mov	r9, r8
    253c:	89 2e       	mov	r8, r25
    253e:	98 2f       	mov	r25, r24
    2540:	87 2f       	mov	r24, r23
    2542:	76 2f       	mov	r23, r22
    2544:	65 2f       	mov	r22, r21
    2546:	54 2f       	mov	r21, r20
    2548:	43 2f       	mov	r20, r19
    254a:	32 2f       	mov	r19, r18
    254c:	22 27       	eor	r18, r18
    254e:	b8 50       	subi	r27, 0x08	; 8
    2550:	31 f7       	brne	.-52     	; 0x251e <__udivmod64+0xe>
    2552:	bf 91       	pop	r27
    2554:	27 c0       	rjmp	.+78     	; 0x25a4 <__udivmod64+0x94>
    2556:	1b 2e       	mov	r1, r27
    2558:	bf 91       	pop	r27
    255a:	bb 27       	eor	r27, r27
    255c:	22 0f       	add	r18, r18
    255e:	33 1f       	adc	r19, r19
    2560:	44 1f       	adc	r20, r20
    2562:	55 1f       	adc	r21, r21
    2564:	66 1f       	adc	r22, r22
    2566:	77 1f       	adc	r23, r23
    2568:	88 1f       	adc	r24, r24
    256a:	99 1f       	adc	r25, r25
    256c:	88 1c       	adc	r8, r8
    256e:	99 1c       	adc	r9, r9
    2570:	ee 1f       	adc	r30, r30
    2572:	ff 1f       	adc	r31, r31
    2574:	cc 1f       	adc	r28, r28
    2576:	dd 1f       	adc	r29, r29
    2578:	aa 1f       	adc	r26, r26
    257a:	bb 1f       	adc	r27, r27
    257c:	8a 14       	cp	r8, r10
    257e:	9b 04       	cpc	r9, r11
    2580:	ec 05       	cpc	r30, r12
    2582:	fd 05       	cpc	r31, r13
    2584:	ce 05       	cpc	r28, r14
    2586:	df 05       	cpc	r29, r15
    2588:	a0 07       	cpc	r26, r16
    258a:	b1 07       	cpc	r27, r17
    258c:	48 f0       	brcs	.+18     	; 0x25a0 <__udivmod64+0x90>
    258e:	8a 18       	sub	r8, r10
    2590:	9b 08       	sbc	r9, r11
    2592:	ec 09       	sbc	r30, r12
    2594:	fd 09       	sbc	r31, r13
    2596:	ce 09       	sbc	r28, r14
    2598:	df 09       	sbc	r29, r15
    259a:	a0 0b       	sbc	r26, r16
    259c:	b1 0b       	sbc	r27, r17
    259e:	21 60       	ori	r18, 0x01	; 1
    25a0:	1a 94       	dec	r1
    25a2:	e1 f6       	brne	.-72     	; 0x255c <__udivmod64+0x4c>
    25a4:	2e f4       	brtc	.+10     	; 0x25b0 <__udivmod64+0xa0>
    25a6:	94 01       	movw	r18, r8
    25a8:	af 01       	movw	r20, r30
    25aa:	be 01       	movw	r22, r28
    25ac:	cd 01       	movw	r24, r26
    25ae:	00 0c       	add	r0, r0
    25b0:	08 95       	ret

000025b2 <__negdi2>:
    25b2:	60 95       	com	r22
    25b4:	70 95       	com	r23
    25b6:	80 95       	com	r24
    25b8:	90 95       	com	r25
    25ba:	30 95       	com	r19
    25bc:	40 95       	com	r20
    25be:	50 95       	com	r21
    25c0:	21 95       	neg	r18
    25c2:	3f 4f       	sbci	r19, 0xFF	; 255
    25c4:	4f 4f       	sbci	r20, 0xFF	; 255
    25c6:	5f 4f       	sbci	r21, 0xFF	; 255
    25c8:	6f 4f       	sbci	r22, 0xFF	; 255
    25ca:	7f 4f       	sbci	r23, 0xFF	; 255
    25cc:	8f 4f       	sbci	r24, 0xFF	; 255
    25ce:	9f 4f       	sbci	r25, 0xFF	; 255
    25d0:	08 95       	ret

000025d2 <__prologue_saves__>:
    25d2:	2f 92       	push	r2
    25d4:	3f 92       	push	r3
    25d6:	4f 92       	push	r4
    25d8:	5f 92       	push	r5
    25da:	6f 92       	push	r6
    25dc:	7f 92       	push	r7
    25de:	8f 92       	push	r8
    25e0:	9f 92       	push	r9
    25e2:	af 92       	push	r10
    25e4:	bf 92       	push	r11
    25e6:	cf 92       	push	r12
    25e8:	df 92       	push	r13
    25ea:	ef 92       	push	r14
    25ec:	ff 92       	push	r15
    25ee:	0f 93       	push	r16
    25f0:	1f 93       	push	r17
    25f2:	cf 93       	push	r28
    25f4:	df 93       	push	r29
    25f6:	cd b7       	in	r28, 0x3d	; 61
    25f8:	de b7       	in	r29, 0x3e	; 62
    25fa:	ca 1b       	sub	r28, r26
    25fc:	db 0b       	sbc	r29, r27
    25fe:	0f b6       	in	r0, 0x3f	; 63
    2600:	f8 94       	cli
    2602:	de bf       	out	0x3e, r29	; 62
    2604:	0f be       	out	0x3f, r0	; 63
    2606:	cd bf       	out	0x3d, r28	; 61
    2608:	09 94       	ijmp

0000260a <__epilogue_restores__>:
    260a:	2a 88       	ldd	r2, Y+18	; 0x12
    260c:	39 88       	ldd	r3, Y+17	; 0x11
    260e:	48 88       	ldd	r4, Y+16	; 0x10
    2610:	5f 84       	ldd	r5, Y+15	; 0x0f
    2612:	6e 84       	ldd	r6, Y+14	; 0x0e
    2614:	7d 84       	ldd	r7, Y+13	; 0x0d
    2616:	8c 84       	ldd	r8, Y+12	; 0x0c
    2618:	9b 84       	ldd	r9, Y+11	; 0x0b
    261a:	aa 84       	ldd	r10, Y+10	; 0x0a
    261c:	b9 84       	ldd	r11, Y+9	; 0x09
    261e:	c8 84       	ldd	r12, Y+8	; 0x08
    2620:	df 80       	ldd	r13, Y+7	; 0x07
    2622:	ee 80       	ldd	r14, Y+6	; 0x06
    2624:	fd 80       	ldd	r15, Y+5	; 0x05
    2626:	0c 81       	ldd	r16, Y+4	; 0x04
    2628:	1b 81       	ldd	r17, Y+3	; 0x03
    262a:	aa 81       	ldd	r26, Y+2	; 0x02
    262c:	b9 81       	ldd	r27, Y+1	; 0x01
    262e:	ce 0f       	add	r28, r30
    2630:	d1 1d       	adc	r29, r1
    2632:	0f b6       	in	r0, 0x3f	; 63
    2634:	f8 94       	cli
    2636:	de bf       	out	0x3e, r29	; 62
    2638:	0f be       	out	0x3f, r0	; 63
    263a:	cd bf       	out	0x3d, r28	; 61
    263c:	ed 01       	movw	r28, r26
    263e:	08 95       	ret

00002640 <__ashldi3>:
    2640:	0f 93       	push	r16
    2642:	08 30       	cpi	r16, 0x08	; 8
    2644:	90 f0       	brcs	.+36     	; 0x266a <__ashldi3+0x2a>
    2646:	98 2f       	mov	r25, r24
    2648:	87 2f       	mov	r24, r23
    264a:	76 2f       	mov	r23, r22
    264c:	65 2f       	mov	r22, r21
    264e:	54 2f       	mov	r21, r20
    2650:	43 2f       	mov	r20, r19
    2652:	32 2f       	mov	r19, r18
    2654:	22 27       	eor	r18, r18
    2656:	08 50       	subi	r16, 0x08	; 8
    2658:	f4 cf       	rjmp	.-24     	; 0x2642 <__ashldi3+0x2>
    265a:	22 0f       	add	r18, r18
    265c:	33 1f       	adc	r19, r19
    265e:	44 1f       	adc	r20, r20
    2660:	55 1f       	adc	r21, r21
    2662:	66 1f       	adc	r22, r22
    2664:	77 1f       	adc	r23, r23
    2666:	88 1f       	adc	r24, r24
    2668:	99 1f       	adc	r25, r25
    266a:	0a 95       	dec	r16
    266c:	b2 f7       	brpl	.-20     	; 0x265a <__ashldi3+0x1a>
    266e:	0f 91       	pop	r16
    2670:	08 95       	ret

00002672 <__adddi3>:
    2672:	2a 0d       	add	r18, r10
    2674:	3b 1d       	adc	r19, r11
    2676:	4c 1d       	adc	r20, r12
    2678:	5d 1d       	adc	r21, r13
    267a:	6e 1d       	adc	r22, r14
    267c:	7f 1d       	adc	r23, r15
    267e:	80 1f       	adc	r24, r16
    2680:	91 1f       	adc	r25, r17
    2682:	08 95       	ret

00002684 <__subdi3>:
    2684:	2a 19       	sub	r18, r10
    2686:	3b 09       	sbc	r19, r11
    2688:	4c 09       	sbc	r20, r12
    268a:	5d 09       	sbc	r21, r13
    268c:	6e 09       	sbc	r22, r14
    268e:	7f 09       	sbc	r23, r15
    2690:	80 0b       	sbc	r24, r16
    2692:	91 0b       	sbc	r25, r17
    2694:	08 95       	ret

00002696 <__itoa_ncheck>:
    2696:	bb 27       	eor	r27, r27
    2698:	4a 30       	cpi	r20, 0x0A	; 10
    269a:	31 f4       	brne	.+12     	; 0x26a8 <__itoa_ncheck+0x12>
    269c:	99 23       	and	r25, r25
    269e:	22 f4       	brpl	.+8      	; 0x26a8 <__itoa_ncheck+0x12>
    26a0:	bd e2       	ldi	r27, 0x2D	; 45
    26a2:	90 95       	com	r25
    26a4:	81 95       	neg	r24
    26a6:	9f 4f       	sbci	r25, 0xFF	; 255
    26a8:	0c 94 57 13 	jmp	0x26ae	; 0x26ae <__utoa_common>

000026ac <__utoa_ncheck>:
    26ac:	bb 27       	eor	r27, r27

000026ae <__utoa_common>:
    26ae:	fb 01       	movw	r30, r22
    26b0:	55 27       	eor	r21, r21
    26b2:	aa 27       	eor	r26, r26
    26b4:	88 0f       	add	r24, r24
    26b6:	99 1f       	adc	r25, r25
    26b8:	aa 1f       	adc	r26, r26
    26ba:	a4 17       	cp	r26, r20
    26bc:	10 f0       	brcs	.+4      	; 0x26c2 <__utoa_common+0x14>
    26be:	a4 1b       	sub	r26, r20
    26c0:	83 95       	inc	r24
    26c2:	50 51       	subi	r21, 0x10	; 16
    26c4:	b9 f7       	brne	.-18     	; 0x26b4 <__utoa_common+0x6>
    26c6:	a0 5d       	subi	r26, 0xD0	; 208
    26c8:	aa 33       	cpi	r26, 0x3A	; 58
    26ca:	08 f0       	brcs	.+2      	; 0x26ce <__utoa_common+0x20>
    26cc:	a9 5d       	subi	r26, 0xD9	; 217
    26ce:	a1 93       	st	Z+, r26
    26d0:	00 97       	sbiw	r24, 0x00	; 0
    26d2:	79 f7       	brne	.-34     	; 0x26b2 <__utoa_common+0x4>
    26d4:	b1 11       	cpse	r27, r1
    26d6:	b1 93       	st	Z+, r27
    26d8:	11 92       	st	Z+, r1
    26da:	cb 01       	movw	r24, r22
    26dc:	0c 94 70 13 	jmp	0x26e0	; 0x26e0 <strrev>

000026e0 <strrev>:
    26e0:	dc 01       	movw	r26, r24
    26e2:	fc 01       	movw	r30, r24
    26e4:	67 2f       	mov	r22, r23
    26e6:	71 91       	ld	r23, Z+
    26e8:	77 23       	and	r23, r23
    26ea:	e1 f7       	brne	.-8      	; 0x26e4 <strrev+0x4>
    26ec:	32 97       	sbiw	r30, 0x02	; 2
    26ee:	04 c0       	rjmp	.+8      	; 0x26f8 <strrev+0x18>
    26f0:	7c 91       	ld	r23, X
    26f2:	6d 93       	st	X+, r22
    26f4:	70 83       	st	Z, r23
    26f6:	62 91       	ld	r22, -Z
    26f8:	ae 17       	cp	r26, r30
    26fa:	bf 07       	cpc	r27, r31
    26fc:	c8 f3       	brcs	.-14     	; 0x26f0 <strrev+0x10>
    26fe:	08 95       	ret

00002700 <_exit>:
    2700:	f8 94       	cli

00002702 <__stop_program>:
    2702:	ff cf       	rjmp	.-2      	; 0x2702 <__stop_program>
